
kernel/kernel:     file format elf64-littleriscv


Disassembly of section .text:

0000000080000000 <_entry>:
    80000000:	0000a117          	auipc	sp,0xa
    80000004:	83010113          	addi	sp,sp,-2000 # 80009830 <stack0>
    80000008:	6505                	lui	a0,0x1
    8000000a:	f14025f3          	csrr	a1,mhartid
    8000000e:	0585                	addi	a1,a1,1
    80000010:	02b50533          	mul	a0,a0,a1
    80000014:	912a                	add	sp,sp,a0
    80000016:	070000ef          	jal	ra,80000086 <start>

000000008000001a <spin>:
    8000001a:	a001                	j	8000001a <spin>

000000008000001c <timerinit>:
// which arrive at timervec in kernelvec.S,
// which turns them into software interrupts for
// devintr() in trap.c.
void
timerinit()
{
    8000001c:	1141                	addi	sp,sp,-16
    8000001e:	e422                	sd	s0,8(sp)
    80000020:	0800                	addi	s0,sp,16
// which hart (core) is this?
static inline uint64
r_mhartid()
{
  uint64 x;
  asm volatile("csrr %0, mhartid" : "=r" (x) );
    80000022:	f14027f3          	csrr	a5,mhartid
  // each CPU has a separate source of timer interrupts.
  int id = r_mhartid();

  // ask the CLINT for a timer interrupt.
  int interval = 1000000; // cycles; about 1/10th second in qemu.
  *(uint64*)CLINT_MTIMECMP(id) = *(uint64*)CLINT_MTIME + interval;
    80000026:	0037969b          	slliw	a3,a5,0x3
    8000002a:	02004737          	lui	a4,0x2004
    8000002e:	96ba                	add	a3,a3,a4
    80000030:	0200c737          	lui	a4,0x200c
    80000034:	ff873603          	ld	a2,-8(a4) # 200bff8 <_entry-0x7dff4008>
    80000038:	000f4737          	lui	a4,0xf4
    8000003c:	24070713          	addi	a4,a4,576 # f4240 <_entry-0x7ff0bdc0>
    80000040:	963a                	add	a2,a2,a4
    80000042:	e290                	sd	a2,0(a3)

  // prepare information in scratch[] for timervec.
  // scratch[0..3] : space for timervec to save registers.
  // scratch[4] : address of CLINT MTIMECMP register.
  // scratch[5] : desired interval (in cycles) between timer interrupts.
  uint64 *scratch = &mscratch0[32 * id];
    80000044:	0057979b          	slliw	a5,a5,0x5
    80000048:	078e                	slli	a5,a5,0x3
    8000004a:	00009617          	auipc	a2,0x9
    8000004e:	fe660613          	addi	a2,a2,-26 # 80009030 <mscratch0>
    80000052:	97b2                	add	a5,a5,a2
  scratch[4] = CLINT_MTIMECMP(id);
    80000054:	f394                	sd	a3,32(a5)
  scratch[5] = interval;
    80000056:	f798                	sd	a4,40(a5)
}

static inline void 
w_mscratch(uint64 x)
{
  asm volatile("csrw mscratch, %0" : : "r" (x));
    80000058:	34079073          	csrw	mscratch,a5
  asm volatile("csrw mtvec, %0" : : "r" (x));
    8000005c:	00006797          	auipc	a5,0x6
    80000060:	dd478793          	addi	a5,a5,-556 # 80005e30 <timervec>
    80000064:	30579073          	csrw	mtvec,a5
  asm volatile("csrr %0, mstatus" : "=r" (x) );
    80000068:	300027f3          	csrr	a5,mstatus

  // set the machine-mode trap handler.
  w_mtvec((uint64)timervec);

  // enable machine-mode interrupts.
  w_mstatus(r_mstatus() | MSTATUS_MIE);
    8000006c:	0087e793          	ori	a5,a5,8
  asm volatile("csrw mstatus, %0" : : "r" (x));
    80000070:	30079073          	csrw	mstatus,a5
  asm volatile("csrr %0, mie" : "=r" (x) );
    80000074:	304027f3          	csrr	a5,mie

  // enable machine-mode timer interrupts.
  w_mie(r_mie() | MIE_MTIE);
    80000078:	0807e793          	ori	a5,a5,128
  asm volatile("csrw mie, %0" : : "r" (x));
    8000007c:	30479073          	csrw	mie,a5
}
    80000080:	6422                	ld	s0,8(sp)
    80000082:	0141                	addi	sp,sp,16
    80000084:	8082                	ret

0000000080000086 <start>:
{
    80000086:	1141                	addi	sp,sp,-16
    80000088:	e406                	sd	ra,8(sp)
    8000008a:	e022                	sd	s0,0(sp)
    8000008c:	0800                	addi	s0,sp,16
  asm volatile("csrr %0, mstatus" : "=r" (x) );
    8000008e:	300027f3          	csrr	a5,mstatus
  x &= ~MSTATUS_MPP_MASK;
    80000092:	7779                	lui	a4,0xffffe
    80000094:	7ff70713          	addi	a4,a4,2047 # ffffffffffffe7ff <end+0xffffffff7ffd77df>
    80000098:	8ff9                	and	a5,a5,a4
  x |= MSTATUS_MPP_S;
    8000009a:	6705                	lui	a4,0x1
    8000009c:	80070713          	addi	a4,a4,-2048 # 800 <_entry-0x7ffff800>
    800000a0:	8fd9                	or	a5,a5,a4
  asm volatile("csrw mstatus, %0" : : "r" (x));
    800000a2:	30079073          	csrw	mstatus,a5
  asm volatile("csrw mepc, %0" : : "r" (x));
    800000a6:	00001797          	auipc	a5,0x1
    800000aa:	e0278793          	addi	a5,a5,-510 # 80000ea8 <main>
    800000ae:	34179073          	csrw	mepc,a5
  asm volatile("csrw satp, %0" : : "r" (x));
    800000b2:	4781                	li	a5,0
    800000b4:	18079073          	csrw	satp,a5
  asm volatile("csrw medeleg, %0" : : "r" (x));
    800000b8:	67c1                	lui	a5,0x10
    800000ba:	17fd                	addi	a5,a5,-1
    800000bc:	30279073          	csrw	medeleg,a5
  asm volatile("csrw mideleg, %0" : : "r" (x));
    800000c0:	30379073          	csrw	mideleg,a5
  asm volatile("csrr %0, sie" : "=r" (x) );
    800000c4:	104027f3          	csrr	a5,sie
  w_sie(r_sie() | SIE_SEIE | SIE_STIE | SIE_SSIE);
    800000c8:	2227e793          	ori	a5,a5,546
  asm volatile("csrw sie, %0" : : "r" (x));
    800000cc:	10479073          	csrw	sie,a5
  timerinit();
    800000d0:	00000097          	auipc	ra,0x0
    800000d4:	f4c080e7          	jalr	-180(ra) # 8000001c <timerinit>
  asm volatile("csrr %0, mhartid" : "=r" (x) );
    800000d8:	f14027f3          	csrr	a5,mhartid
  w_tp(id);
    800000dc:	2781                	sext.w	a5,a5
}

static inline void 
w_tp(uint64 x)
{
  asm volatile("mv tp, %0" : : "r" (x));
    800000de:	823e                	mv	tp,a5
  asm volatile("mret");
    800000e0:	30200073          	mret
}
    800000e4:	60a2                	ld	ra,8(sp)
    800000e6:	6402                	ld	s0,0(sp)
    800000e8:	0141                	addi	sp,sp,16
    800000ea:	8082                	ret

00000000800000ec <consolewrite>:
//
// user write()s to the console go here.
//
int
consolewrite(int user_src, uint64 src, int n)
{
    800000ec:	715d                	addi	sp,sp,-80
    800000ee:	e486                	sd	ra,72(sp)
    800000f0:	e0a2                	sd	s0,64(sp)
    800000f2:	fc26                	sd	s1,56(sp)
    800000f4:	f84a                	sd	s2,48(sp)
    800000f6:	f44e                	sd	s3,40(sp)
    800000f8:	f052                	sd	s4,32(sp)
    800000fa:	ec56                	sd	s5,24(sp)
    800000fc:	0880                	addi	s0,sp,80
    800000fe:	8a2a                	mv	s4,a0
    80000100:	84ae                	mv	s1,a1
    80000102:	89b2                	mv	s3,a2
  int i;

  acquire(&cons.lock);
    80000104:	00011517          	auipc	a0,0x11
    80000108:	72c50513          	addi	a0,a0,1836 # 80011830 <cons>
    8000010c:	00001097          	auipc	ra,0x1
    80000110:	af2080e7          	jalr	-1294(ra) # 80000bfe <acquire>
  for(i = 0; i < n; i++){
    80000114:	05305b63          	blez	s3,8000016a <consolewrite+0x7e>
    80000118:	4901                	li	s2,0
    char c;
    if(either_copyin(&c, user_src, src+i, 1) == -1)
    8000011a:	5afd                	li	s5,-1
    8000011c:	4685                	li	a3,1
    8000011e:	8626                	mv	a2,s1
    80000120:	85d2                	mv	a1,s4
    80000122:	fbf40513          	addi	a0,s0,-65
    80000126:	00002097          	auipc	ra,0x2
    8000012a:	46a080e7          	jalr	1130(ra) # 80002590 <either_copyin>
    8000012e:	01550c63          	beq	a0,s5,80000146 <consolewrite+0x5a>
      break;
    uartputc(c);
    80000132:	fbf44503          	lbu	a0,-65(s0)
    80000136:	00000097          	auipc	ra,0x0
    8000013a:	796080e7          	jalr	1942(ra) # 800008cc <uartputc>
  for(i = 0; i < n; i++){
    8000013e:	2905                	addiw	s2,s2,1
    80000140:	0485                	addi	s1,s1,1
    80000142:	fd299de3          	bne	s3,s2,8000011c <consolewrite+0x30>
  }
  release(&cons.lock);
    80000146:	00011517          	auipc	a0,0x11
    8000014a:	6ea50513          	addi	a0,a0,1770 # 80011830 <cons>
    8000014e:	00001097          	auipc	ra,0x1
    80000152:	b64080e7          	jalr	-1180(ra) # 80000cb2 <release>

  return i;
}
    80000156:	854a                	mv	a0,s2
    80000158:	60a6                	ld	ra,72(sp)
    8000015a:	6406                	ld	s0,64(sp)
    8000015c:	74e2                	ld	s1,56(sp)
    8000015e:	7942                	ld	s2,48(sp)
    80000160:	79a2                	ld	s3,40(sp)
    80000162:	7a02                	ld	s4,32(sp)
    80000164:	6ae2                	ld	s5,24(sp)
    80000166:	6161                	addi	sp,sp,80
    80000168:	8082                	ret
  for(i = 0; i < n; i++){
    8000016a:	4901                	li	s2,0
    8000016c:	bfe9                	j	80000146 <consolewrite+0x5a>

000000008000016e <consoleread>:
// user_dist indicates whether dst is a user
// or kernel address.
//
int
consoleread(int user_dst, uint64 dst, int n)
{
    8000016e:	7159                	addi	sp,sp,-112
    80000170:	f486                	sd	ra,104(sp)
    80000172:	f0a2                	sd	s0,96(sp)
    80000174:	eca6                	sd	s1,88(sp)
    80000176:	e8ca                	sd	s2,80(sp)
    80000178:	e4ce                	sd	s3,72(sp)
    8000017a:	e0d2                	sd	s4,64(sp)
    8000017c:	fc56                	sd	s5,56(sp)
    8000017e:	f85a                	sd	s6,48(sp)
    80000180:	f45e                	sd	s7,40(sp)
    80000182:	f062                	sd	s8,32(sp)
    80000184:	ec66                	sd	s9,24(sp)
    80000186:	e86a                	sd	s10,16(sp)
    80000188:	1880                	addi	s0,sp,112
    8000018a:	8aaa                	mv	s5,a0
    8000018c:	8a2e                	mv	s4,a1
    8000018e:	89b2                	mv	s3,a2
  uint target;
  int c;
  char cbuf;

  target = n;
    80000190:	00060b1b          	sext.w	s6,a2
  acquire(&cons.lock);
    80000194:	00011517          	auipc	a0,0x11
    80000198:	69c50513          	addi	a0,a0,1692 # 80011830 <cons>
    8000019c:	00001097          	auipc	ra,0x1
    800001a0:	a62080e7          	jalr	-1438(ra) # 80000bfe <acquire>
  while(n > 0){
    // wait until interrupt handler has put some
    // input into cons.buffer.
    while(cons.r == cons.w){
    800001a4:	00011497          	auipc	s1,0x11
    800001a8:	68c48493          	addi	s1,s1,1676 # 80011830 <cons>
      if(myproc()->killed){
        release(&cons.lock);
        return -1;
      }
      sleep(&cons.r, &cons.lock);
    800001ac:	00011917          	auipc	s2,0x11
    800001b0:	71c90913          	addi	s2,s2,1820 # 800118c8 <cons+0x98>
    }

    c = cons.buf[cons.r++ % INPUT_BUF];

    if(c == C('D')){  // end-of-file
    800001b4:	4b91                	li	s7,4
      break;
    }

    // copy the input byte to the user-space buffer.
    cbuf = c;
    if(either_copyout(user_dst, dst, &cbuf, 1) == -1)
    800001b6:	5c7d                	li	s8,-1
      break;

    dst++;
    --n;

    if(c == '\n'){
    800001b8:	4ca9                	li	s9,10
  while(n > 0){
    800001ba:	07305863          	blez	s3,8000022a <consoleread+0xbc>
    while(cons.r == cons.w){
    800001be:	0984a783          	lw	a5,152(s1)
    800001c2:	09c4a703          	lw	a4,156(s1)
    800001c6:	02f71463          	bne	a4,a5,800001ee <consoleread+0x80>
      if(myproc()->killed){
    800001ca:	00002097          	auipc	ra,0x2
    800001ce:	86a080e7          	jalr	-1942(ra) # 80001a34 <myproc>
    800001d2:	591c                	lw	a5,48(a0)
    800001d4:	e7b5                	bnez	a5,80000240 <consoleread+0xd2>
      sleep(&cons.r, &cons.lock);
    800001d6:	85a6                	mv	a1,s1
    800001d8:	854a                	mv	a0,s2
    800001da:	00002097          	auipc	ra,0x2
    800001de:	106080e7          	jalr	262(ra) # 800022e0 <sleep>
    while(cons.r == cons.w){
    800001e2:	0984a783          	lw	a5,152(s1)
    800001e6:	09c4a703          	lw	a4,156(s1)
    800001ea:	fef700e3          	beq	a4,a5,800001ca <consoleread+0x5c>
    c = cons.buf[cons.r++ % INPUT_BUF];
    800001ee:	0017871b          	addiw	a4,a5,1
    800001f2:	08e4ac23          	sw	a4,152(s1)
    800001f6:	07f7f713          	andi	a4,a5,127
    800001fa:	9726                	add	a4,a4,s1
    800001fc:	01874703          	lbu	a4,24(a4)
    80000200:	00070d1b          	sext.w	s10,a4
    if(c == C('D')){  // end-of-file
    80000204:	077d0563          	beq	s10,s7,8000026e <consoleread+0x100>
    cbuf = c;
    80000208:	f8e40fa3          	sb	a4,-97(s0)
    if(either_copyout(user_dst, dst, &cbuf, 1) == -1)
    8000020c:	4685                	li	a3,1
    8000020e:	f9f40613          	addi	a2,s0,-97
    80000212:	85d2                	mv	a1,s4
    80000214:	8556                	mv	a0,s5
    80000216:	00002097          	auipc	ra,0x2
    8000021a:	324080e7          	jalr	804(ra) # 8000253a <either_copyout>
    8000021e:	01850663          	beq	a0,s8,8000022a <consoleread+0xbc>
    dst++;
    80000222:	0a05                	addi	s4,s4,1
    --n;
    80000224:	39fd                	addiw	s3,s3,-1
    if(c == '\n'){
    80000226:	f99d1ae3          	bne	s10,s9,800001ba <consoleread+0x4c>
      // a whole line has arrived, return to
      // the user-level read().
      break;
    }
  }
  release(&cons.lock);
    8000022a:	00011517          	auipc	a0,0x11
    8000022e:	60650513          	addi	a0,a0,1542 # 80011830 <cons>
    80000232:	00001097          	auipc	ra,0x1
    80000236:	a80080e7          	jalr	-1408(ra) # 80000cb2 <release>

  return target - n;
    8000023a:	413b053b          	subw	a0,s6,s3
    8000023e:	a811                	j	80000252 <consoleread+0xe4>
        release(&cons.lock);
    80000240:	00011517          	auipc	a0,0x11
    80000244:	5f050513          	addi	a0,a0,1520 # 80011830 <cons>
    80000248:	00001097          	auipc	ra,0x1
    8000024c:	a6a080e7          	jalr	-1430(ra) # 80000cb2 <release>
        return -1;
    80000250:	557d                	li	a0,-1
}
    80000252:	70a6                	ld	ra,104(sp)
    80000254:	7406                	ld	s0,96(sp)
    80000256:	64e6                	ld	s1,88(sp)
    80000258:	6946                	ld	s2,80(sp)
    8000025a:	69a6                	ld	s3,72(sp)
    8000025c:	6a06                	ld	s4,64(sp)
    8000025e:	7ae2                	ld	s5,56(sp)
    80000260:	7b42                	ld	s6,48(sp)
    80000262:	7ba2                	ld	s7,40(sp)
    80000264:	7c02                	ld	s8,32(sp)
    80000266:	6ce2                	ld	s9,24(sp)
    80000268:	6d42                	ld	s10,16(sp)
    8000026a:	6165                	addi	sp,sp,112
    8000026c:	8082                	ret
      if(n < target){
    8000026e:	0009871b          	sext.w	a4,s3
    80000272:	fb677ce3          	bgeu	a4,s6,8000022a <consoleread+0xbc>
        cons.r--;
    80000276:	00011717          	auipc	a4,0x11
    8000027a:	64f72923          	sw	a5,1618(a4) # 800118c8 <cons+0x98>
    8000027e:	b775                	j	8000022a <consoleread+0xbc>

0000000080000280 <consputc>:
{
    80000280:	1141                	addi	sp,sp,-16
    80000282:	e406                	sd	ra,8(sp)
    80000284:	e022                	sd	s0,0(sp)
    80000286:	0800                	addi	s0,sp,16
  if(c == BACKSPACE){
    80000288:	10000793          	li	a5,256
    8000028c:	00f50a63          	beq	a0,a5,800002a0 <consputc+0x20>
    uartputc_sync(c);
    80000290:	00000097          	auipc	ra,0x0
    80000294:	55e080e7          	jalr	1374(ra) # 800007ee <uartputc_sync>
}
    80000298:	60a2                	ld	ra,8(sp)
    8000029a:	6402                	ld	s0,0(sp)
    8000029c:	0141                	addi	sp,sp,16
    8000029e:	8082                	ret
    uartputc_sync('\b'); uartputc_sync(' '); uartputc_sync('\b');
    800002a0:	4521                	li	a0,8
    800002a2:	00000097          	auipc	ra,0x0
    800002a6:	54c080e7          	jalr	1356(ra) # 800007ee <uartputc_sync>
    800002aa:	02000513          	li	a0,32
    800002ae:	00000097          	auipc	ra,0x0
    800002b2:	540080e7          	jalr	1344(ra) # 800007ee <uartputc_sync>
    800002b6:	4521                	li	a0,8
    800002b8:	00000097          	auipc	ra,0x0
    800002bc:	536080e7          	jalr	1334(ra) # 800007ee <uartputc_sync>
    800002c0:	bfe1                	j	80000298 <consputc+0x18>

00000000800002c2 <consoleintr>:
// do erase/kill processing, append to cons.buf,
// wake up consoleread() if a whole line has arrived.
//
void
consoleintr(int c)
{
    800002c2:	1101                	addi	sp,sp,-32
    800002c4:	ec06                	sd	ra,24(sp)
    800002c6:	e822                	sd	s0,16(sp)
    800002c8:	e426                	sd	s1,8(sp)
    800002ca:	e04a                	sd	s2,0(sp)
    800002cc:	1000                	addi	s0,sp,32
    800002ce:	84aa                	mv	s1,a0
  acquire(&cons.lock);
    800002d0:	00011517          	auipc	a0,0x11
    800002d4:	56050513          	addi	a0,a0,1376 # 80011830 <cons>
    800002d8:	00001097          	auipc	ra,0x1
    800002dc:	926080e7          	jalr	-1754(ra) # 80000bfe <acquire>

  switch(c){
    800002e0:	47d5                	li	a5,21
    800002e2:	0af48663          	beq	s1,a5,8000038e <consoleintr+0xcc>
    800002e6:	0297ca63          	blt	a5,s1,8000031a <consoleintr+0x58>
    800002ea:	47a1                	li	a5,8
    800002ec:	0ef48763          	beq	s1,a5,800003da <consoleintr+0x118>
    800002f0:	47c1                	li	a5,16
    800002f2:	10f49a63          	bne	s1,a5,80000406 <consoleintr+0x144>
  case C('P'):  // Print process list.
    procdump();
    800002f6:	00002097          	auipc	ra,0x2
    800002fa:	2f0080e7          	jalr	752(ra) # 800025e6 <procdump>
      }
    }
    break;
  }
  
  release(&cons.lock);
    800002fe:	00011517          	auipc	a0,0x11
    80000302:	53250513          	addi	a0,a0,1330 # 80011830 <cons>
    80000306:	00001097          	auipc	ra,0x1
    8000030a:	9ac080e7          	jalr	-1620(ra) # 80000cb2 <release>
}
    8000030e:	60e2                	ld	ra,24(sp)
    80000310:	6442                	ld	s0,16(sp)
    80000312:	64a2                	ld	s1,8(sp)
    80000314:	6902                	ld	s2,0(sp)
    80000316:	6105                	addi	sp,sp,32
    80000318:	8082                	ret
  switch(c){
    8000031a:	07f00793          	li	a5,127
    8000031e:	0af48e63          	beq	s1,a5,800003da <consoleintr+0x118>
    if(c != 0 && cons.e-cons.r < INPUT_BUF){
    80000322:	00011717          	auipc	a4,0x11
    80000326:	50e70713          	addi	a4,a4,1294 # 80011830 <cons>
    8000032a:	0a072783          	lw	a5,160(a4)
    8000032e:	09872703          	lw	a4,152(a4)
    80000332:	9f99                	subw	a5,a5,a4
    80000334:	07f00713          	li	a4,127
    80000338:	fcf763e3          	bltu	a4,a5,800002fe <consoleintr+0x3c>
      c = (c == '\r') ? '\n' : c;
    8000033c:	47b5                	li	a5,13
    8000033e:	0cf48763          	beq	s1,a5,8000040c <consoleintr+0x14a>
      consputc(c);
    80000342:	8526                	mv	a0,s1
    80000344:	00000097          	auipc	ra,0x0
    80000348:	f3c080e7          	jalr	-196(ra) # 80000280 <consputc>
      cons.buf[cons.e++ % INPUT_BUF] = c;
    8000034c:	00011797          	auipc	a5,0x11
    80000350:	4e478793          	addi	a5,a5,1252 # 80011830 <cons>
    80000354:	0a07a703          	lw	a4,160(a5)
    80000358:	0017069b          	addiw	a3,a4,1
    8000035c:	0006861b          	sext.w	a2,a3
    80000360:	0ad7a023          	sw	a3,160(a5)
    80000364:	07f77713          	andi	a4,a4,127
    80000368:	97ba                	add	a5,a5,a4
    8000036a:	00978c23          	sb	s1,24(a5)
      if(c == '\n' || c == C('D') || cons.e == cons.r+INPUT_BUF){
    8000036e:	47a9                	li	a5,10
    80000370:	0cf48563          	beq	s1,a5,8000043a <consoleintr+0x178>
    80000374:	4791                	li	a5,4
    80000376:	0cf48263          	beq	s1,a5,8000043a <consoleintr+0x178>
    8000037a:	00011797          	auipc	a5,0x11
    8000037e:	54e7a783          	lw	a5,1358(a5) # 800118c8 <cons+0x98>
    80000382:	0807879b          	addiw	a5,a5,128
    80000386:	f6f61ce3          	bne	a2,a5,800002fe <consoleintr+0x3c>
      cons.buf[cons.e++ % INPUT_BUF] = c;
    8000038a:	863e                	mv	a2,a5
    8000038c:	a07d                	j	8000043a <consoleintr+0x178>
    while(cons.e != cons.w &&
    8000038e:	00011717          	auipc	a4,0x11
    80000392:	4a270713          	addi	a4,a4,1186 # 80011830 <cons>
    80000396:	0a072783          	lw	a5,160(a4)
    8000039a:	09c72703          	lw	a4,156(a4)
          cons.buf[(cons.e-1) % INPUT_BUF] != '\n'){
    8000039e:	00011497          	auipc	s1,0x11
    800003a2:	49248493          	addi	s1,s1,1170 # 80011830 <cons>
    while(cons.e != cons.w &&
    800003a6:	4929                	li	s2,10
    800003a8:	f4f70be3          	beq	a4,a5,800002fe <consoleintr+0x3c>
          cons.buf[(cons.e-1) % INPUT_BUF] != '\n'){
    800003ac:	37fd                	addiw	a5,a5,-1
    800003ae:	07f7f713          	andi	a4,a5,127
    800003b2:	9726                	add	a4,a4,s1
    while(cons.e != cons.w &&
    800003b4:	01874703          	lbu	a4,24(a4)
    800003b8:	f52703e3          	beq	a4,s2,800002fe <consoleintr+0x3c>
      cons.e--;
    800003bc:	0af4a023          	sw	a5,160(s1)
      consputc(BACKSPACE);
    800003c0:	10000513          	li	a0,256
    800003c4:	00000097          	auipc	ra,0x0
    800003c8:	ebc080e7          	jalr	-324(ra) # 80000280 <consputc>
    while(cons.e != cons.w &&
    800003cc:	0a04a783          	lw	a5,160(s1)
    800003d0:	09c4a703          	lw	a4,156(s1)
    800003d4:	fcf71ce3          	bne	a4,a5,800003ac <consoleintr+0xea>
    800003d8:	b71d                	j	800002fe <consoleintr+0x3c>
    if(cons.e != cons.w){
    800003da:	00011717          	auipc	a4,0x11
    800003de:	45670713          	addi	a4,a4,1110 # 80011830 <cons>
    800003e2:	0a072783          	lw	a5,160(a4)
    800003e6:	09c72703          	lw	a4,156(a4)
    800003ea:	f0f70ae3          	beq	a4,a5,800002fe <consoleintr+0x3c>
      cons.e--;
    800003ee:	37fd                	addiw	a5,a5,-1
    800003f0:	00011717          	auipc	a4,0x11
    800003f4:	4ef72023          	sw	a5,1248(a4) # 800118d0 <cons+0xa0>
      consputc(BACKSPACE);
    800003f8:	10000513          	li	a0,256
    800003fc:	00000097          	auipc	ra,0x0
    80000400:	e84080e7          	jalr	-380(ra) # 80000280 <consputc>
    80000404:	bded                	j	800002fe <consoleintr+0x3c>
    if(c != 0 && cons.e-cons.r < INPUT_BUF){
    80000406:	ee048ce3          	beqz	s1,800002fe <consoleintr+0x3c>
    8000040a:	bf21                	j	80000322 <consoleintr+0x60>
      consputc(c);
    8000040c:	4529                	li	a0,10
    8000040e:	00000097          	auipc	ra,0x0
    80000412:	e72080e7          	jalr	-398(ra) # 80000280 <consputc>
      cons.buf[cons.e++ % INPUT_BUF] = c;
    80000416:	00011797          	auipc	a5,0x11
    8000041a:	41a78793          	addi	a5,a5,1050 # 80011830 <cons>
    8000041e:	0a07a703          	lw	a4,160(a5)
    80000422:	0017069b          	addiw	a3,a4,1
    80000426:	0006861b          	sext.w	a2,a3
    8000042a:	0ad7a023          	sw	a3,160(a5)
    8000042e:	07f77713          	andi	a4,a4,127
    80000432:	97ba                	add	a5,a5,a4
    80000434:	4729                	li	a4,10
    80000436:	00e78c23          	sb	a4,24(a5)
        cons.w = cons.e;
    8000043a:	00011797          	auipc	a5,0x11
    8000043e:	48c7a923          	sw	a2,1170(a5) # 800118cc <cons+0x9c>
        wakeup(&cons.r);
    80000442:	00011517          	auipc	a0,0x11
    80000446:	48650513          	addi	a0,a0,1158 # 800118c8 <cons+0x98>
    8000044a:	00002097          	auipc	ra,0x2
    8000044e:	016080e7          	jalr	22(ra) # 80002460 <wakeup>
    80000452:	b575                	j	800002fe <consoleintr+0x3c>

0000000080000454 <consoleinit>:

void
consoleinit(void)
{
    80000454:	1141                	addi	sp,sp,-16
    80000456:	e406                	sd	ra,8(sp)
    80000458:	e022                	sd	s0,0(sp)
    8000045a:	0800                	addi	s0,sp,16
  initlock(&cons.lock, "cons");
    8000045c:	00008597          	auipc	a1,0x8
    80000460:	ba458593          	addi	a1,a1,-1116 # 80008000 <etext>
    80000464:	00011517          	auipc	a0,0x11
    80000468:	3cc50513          	addi	a0,a0,972 # 80011830 <cons>
    8000046c:	00000097          	auipc	ra,0x0
    80000470:	702080e7          	jalr	1794(ra) # 80000b6e <initlock>

  uartinit();
    80000474:	00000097          	auipc	ra,0x0
    80000478:	32a080e7          	jalr	810(ra) # 8000079e <uartinit>

  // connect read and write system calls
  // to consoleread and consolewrite.
  devsw[CONSOLE].read = consoleread;
    8000047c:	00021797          	auipc	a5,0x21
    80000480:	73478793          	addi	a5,a5,1844 # 80021bb0 <devsw>
    80000484:	00000717          	auipc	a4,0x0
    80000488:	cea70713          	addi	a4,a4,-790 # 8000016e <consoleread>
    8000048c:	eb98                	sd	a4,16(a5)
  devsw[CONSOLE].write = consolewrite;
    8000048e:	00000717          	auipc	a4,0x0
    80000492:	c5e70713          	addi	a4,a4,-930 # 800000ec <consolewrite>
    80000496:	ef98                	sd	a4,24(a5)
}
    80000498:	60a2                	ld	ra,8(sp)
    8000049a:	6402                	ld	s0,0(sp)
    8000049c:	0141                	addi	sp,sp,16
    8000049e:	8082                	ret

00000000800004a0 <printint>:

static char digits[] = "0123456789abcdef";

static void
printint(int xx, int base, int sign)
{
    800004a0:	7179                	addi	sp,sp,-48
    800004a2:	f406                	sd	ra,40(sp)
    800004a4:	f022                	sd	s0,32(sp)
    800004a6:	ec26                	sd	s1,24(sp)
    800004a8:	e84a                	sd	s2,16(sp)
    800004aa:	1800                	addi	s0,sp,48
  char buf[16];
  int i;
  uint x;

  if(sign && (sign = xx < 0))
    800004ac:	c219                	beqz	a2,800004b2 <printint+0x12>
    800004ae:	08054663          	bltz	a0,8000053a <printint+0x9a>
    x = -xx;
  else
    x = xx;
    800004b2:	2501                	sext.w	a0,a0
    800004b4:	4881                	li	a7,0
    800004b6:	fd040693          	addi	a3,s0,-48

  i = 0;
    800004ba:	4701                	li	a4,0
  do {
    buf[i++] = digits[x % base];
    800004bc:	2581                	sext.w	a1,a1
    800004be:	00008617          	auipc	a2,0x8
    800004c2:	b7260613          	addi	a2,a2,-1166 # 80008030 <digits>
    800004c6:	883a                	mv	a6,a4
    800004c8:	2705                	addiw	a4,a4,1
    800004ca:	02b577bb          	remuw	a5,a0,a1
    800004ce:	1782                	slli	a5,a5,0x20
    800004d0:	9381                	srli	a5,a5,0x20
    800004d2:	97b2                	add	a5,a5,a2
    800004d4:	0007c783          	lbu	a5,0(a5)
    800004d8:	00f68023          	sb	a5,0(a3)
  } while((x /= base) != 0);
    800004dc:	0005079b          	sext.w	a5,a0
    800004e0:	02b5553b          	divuw	a0,a0,a1
    800004e4:	0685                	addi	a3,a3,1
    800004e6:	feb7f0e3          	bgeu	a5,a1,800004c6 <printint+0x26>

  if(sign)
    800004ea:	00088b63          	beqz	a7,80000500 <printint+0x60>
    buf[i++] = '-';
    800004ee:	fe040793          	addi	a5,s0,-32
    800004f2:	973e                	add	a4,a4,a5
    800004f4:	02d00793          	li	a5,45
    800004f8:	fef70823          	sb	a5,-16(a4)
    800004fc:	0028071b          	addiw	a4,a6,2

  while(--i >= 0)
    80000500:	02e05763          	blez	a4,8000052e <printint+0x8e>
    80000504:	fd040793          	addi	a5,s0,-48
    80000508:	00e784b3          	add	s1,a5,a4
    8000050c:	fff78913          	addi	s2,a5,-1
    80000510:	993a                	add	s2,s2,a4
    80000512:	377d                	addiw	a4,a4,-1
    80000514:	1702                	slli	a4,a4,0x20
    80000516:	9301                	srli	a4,a4,0x20
    80000518:	40e90933          	sub	s2,s2,a4
    consputc(buf[i]);
    8000051c:	fff4c503          	lbu	a0,-1(s1)
    80000520:	00000097          	auipc	ra,0x0
    80000524:	d60080e7          	jalr	-672(ra) # 80000280 <consputc>
  while(--i >= 0)
    80000528:	14fd                	addi	s1,s1,-1
    8000052a:	ff2499e3          	bne	s1,s2,8000051c <printint+0x7c>
}
    8000052e:	70a2                	ld	ra,40(sp)
    80000530:	7402                	ld	s0,32(sp)
    80000532:	64e2                	ld	s1,24(sp)
    80000534:	6942                	ld	s2,16(sp)
    80000536:	6145                	addi	sp,sp,48
    80000538:	8082                	ret
    x = -xx;
    8000053a:	40a0053b          	negw	a0,a0
  if(sign && (sign = xx < 0))
    8000053e:	4885                	li	a7,1
    x = -xx;
    80000540:	bf9d                	j	800004b6 <printint+0x16>

0000000080000542 <panic>:
    release(&pr.lock);
}

void
panic(char *s)
{
    80000542:	1101                	addi	sp,sp,-32
    80000544:	ec06                	sd	ra,24(sp)
    80000546:	e822                	sd	s0,16(sp)
    80000548:	e426                	sd	s1,8(sp)
    8000054a:	1000                	addi	s0,sp,32
    8000054c:	84aa                	mv	s1,a0
  pr.locking = 0;
    8000054e:	00011797          	auipc	a5,0x11
    80000552:	3a07a123          	sw	zero,930(a5) # 800118f0 <pr+0x18>
  printf("panic: ");
    80000556:	00008517          	auipc	a0,0x8
    8000055a:	ab250513          	addi	a0,a0,-1358 # 80008008 <etext+0x8>
    8000055e:	00000097          	auipc	ra,0x0
    80000562:	02e080e7          	jalr	46(ra) # 8000058c <printf>
  printf(s);
    80000566:	8526                	mv	a0,s1
    80000568:	00000097          	auipc	ra,0x0
    8000056c:	024080e7          	jalr	36(ra) # 8000058c <printf>
  printf("\n");
    80000570:	00008517          	auipc	a0,0x8
    80000574:	b4850513          	addi	a0,a0,-1208 # 800080b8 <digits+0x88>
    80000578:	00000097          	auipc	ra,0x0
    8000057c:	014080e7          	jalr	20(ra) # 8000058c <printf>
  panicked = 1; // freeze uart output from other CPUs
    80000580:	4785                	li	a5,1
    80000582:	00009717          	auipc	a4,0x9
    80000586:	a6f72f23          	sw	a5,-1410(a4) # 80009000 <panicked>
  for(;;)
    8000058a:	a001                	j	8000058a <panic+0x48>

000000008000058c <printf>:
{
    8000058c:	7131                	addi	sp,sp,-192
    8000058e:	fc86                	sd	ra,120(sp)
    80000590:	f8a2                	sd	s0,112(sp)
    80000592:	f4a6                	sd	s1,104(sp)
    80000594:	f0ca                	sd	s2,96(sp)
    80000596:	ecce                	sd	s3,88(sp)
    80000598:	e8d2                	sd	s4,80(sp)
    8000059a:	e4d6                	sd	s5,72(sp)
    8000059c:	e0da                	sd	s6,64(sp)
    8000059e:	fc5e                	sd	s7,56(sp)
    800005a0:	f862                	sd	s8,48(sp)
    800005a2:	f466                	sd	s9,40(sp)
    800005a4:	f06a                	sd	s10,32(sp)
    800005a6:	ec6e                	sd	s11,24(sp)
    800005a8:	0100                	addi	s0,sp,128
    800005aa:	8a2a                	mv	s4,a0
    800005ac:	e40c                	sd	a1,8(s0)
    800005ae:	e810                	sd	a2,16(s0)
    800005b0:	ec14                	sd	a3,24(s0)
    800005b2:	f018                	sd	a4,32(s0)
    800005b4:	f41c                	sd	a5,40(s0)
    800005b6:	03043823          	sd	a6,48(s0)
    800005ba:	03143c23          	sd	a7,56(s0)
  locking = pr.locking;
    800005be:	00011d97          	auipc	s11,0x11
    800005c2:	332dad83          	lw	s11,818(s11) # 800118f0 <pr+0x18>
  if(locking)
    800005c6:	020d9b63          	bnez	s11,800005fc <printf+0x70>
  if (fmt == 0)
    800005ca:	040a0263          	beqz	s4,8000060e <printf+0x82>
  va_start(ap, fmt);
    800005ce:	00840793          	addi	a5,s0,8
    800005d2:	f8f43423          	sd	a5,-120(s0)
  for(i = 0; (c = fmt[i] & 0xff) != 0; i++){
    800005d6:	000a4503          	lbu	a0,0(s4)
    800005da:	14050f63          	beqz	a0,80000738 <printf+0x1ac>
    800005de:	4981                	li	s3,0
    if(c != '%'){
    800005e0:	02500a93          	li	s5,37
    switch(c){
    800005e4:	07000b93          	li	s7,112
  consputc('x');
    800005e8:	4d41                	li	s10,16
    consputc(digits[x >> (sizeof(uint64) * 8 - 4)]);
    800005ea:	00008b17          	auipc	s6,0x8
    800005ee:	a46b0b13          	addi	s6,s6,-1466 # 80008030 <digits>
    switch(c){
    800005f2:	07300c93          	li	s9,115
    800005f6:	06400c13          	li	s8,100
    800005fa:	a82d                	j	80000634 <printf+0xa8>
    acquire(&pr.lock);
    800005fc:	00011517          	auipc	a0,0x11
    80000600:	2dc50513          	addi	a0,a0,732 # 800118d8 <pr>
    80000604:	00000097          	auipc	ra,0x0
    80000608:	5fa080e7          	jalr	1530(ra) # 80000bfe <acquire>
    8000060c:	bf7d                	j	800005ca <printf+0x3e>
    panic("null fmt");
    8000060e:	00008517          	auipc	a0,0x8
    80000612:	a0a50513          	addi	a0,a0,-1526 # 80008018 <etext+0x18>
    80000616:	00000097          	auipc	ra,0x0
    8000061a:	f2c080e7          	jalr	-212(ra) # 80000542 <panic>
      consputc(c);
    8000061e:	00000097          	auipc	ra,0x0
    80000622:	c62080e7          	jalr	-926(ra) # 80000280 <consputc>
  for(i = 0; (c = fmt[i] & 0xff) != 0; i++){
    80000626:	2985                	addiw	s3,s3,1
    80000628:	013a07b3          	add	a5,s4,s3
    8000062c:	0007c503          	lbu	a0,0(a5)
    80000630:	10050463          	beqz	a0,80000738 <printf+0x1ac>
    if(c != '%'){
    80000634:	ff5515e3          	bne	a0,s5,8000061e <printf+0x92>
    c = fmt[++i] & 0xff;
    80000638:	2985                	addiw	s3,s3,1
    8000063a:	013a07b3          	add	a5,s4,s3
    8000063e:	0007c783          	lbu	a5,0(a5)
    80000642:	0007849b          	sext.w	s1,a5
    if(c == 0)
    80000646:	cbed                	beqz	a5,80000738 <printf+0x1ac>
    switch(c){
    80000648:	05778a63          	beq	a5,s7,8000069c <printf+0x110>
    8000064c:	02fbf663          	bgeu	s7,a5,80000678 <printf+0xec>
    80000650:	09978863          	beq	a5,s9,800006e0 <printf+0x154>
    80000654:	07800713          	li	a4,120
    80000658:	0ce79563          	bne	a5,a4,80000722 <printf+0x196>
      printint(va_arg(ap, int), 16, 1);
    8000065c:	f8843783          	ld	a5,-120(s0)
    80000660:	00878713          	addi	a4,a5,8
    80000664:	f8e43423          	sd	a4,-120(s0)
    80000668:	4605                	li	a2,1
    8000066a:	85ea                	mv	a1,s10
    8000066c:	4388                	lw	a0,0(a5)
    8000066e:	00000097          	auipc	ra,0x0
    80000672:	e32080e7          	jalr	-462(ra) # 800004a0 <printint>
      break;
    80000676:	bf45                	j	80000626 <printf+0x9a>
    switch(c){
    80000678:	09578f63          	beq	a5,s5,80000716 <printf+0x18a>
    8000067c:	0b879363          	bne	a5,s8,80000722 <printf+0x196>
      printint(va_arg(ap, int), 10, 1);
    80000680:	f8843783          	ld	a5,-120(s0)
    80000684:	00878713          	addi	a4,a5,8
    80000688:	f8e43423          	sd	a4,-120(s0)
    8000068c:	4605                	li	a2,1
    8000068e:	45a9                	li	a1,10
    80000690:	4388                	lw	a0,0(a5)
    80000692:	00000097          	auipc	ra,0x0
    80000696:	e0e080e7          	jalr	-498(ra) # 800004a0 <printint>
      break;
    8000069a:	b771                	j	80000626 <printf+0x9a>
      printptr(va_arg(ap, uint64));
    8000069c:	f8843783          	ld	a5,-120(s0)
    800006a0:	00878713          	addi	a4,a5,8
    800006a4:	f8e43423          	sd	a4,-120(s0)
    800006a8:	0007b903          	ld	s2,0(a5)
  consputc('0');
    800006ac:	03000513          	li	a0,48
    800006b0:	00000097          	auipc	ra,0x0
    800006b4:	bd0080e7          	jalr	-1072(ra) # 80000280 <consputc>
  consputc('x');
    800006b8:	07800513          	li	a0,120
    800006bc:	00000097          	auipc	ra,0x0
    800006c0:	bc4080e7          	jalr	-1084(ra) # 80000280 <consputc>
    800006c4:	84ea                	mv	s1,s10
    consputc(digits[x >> (sizeof(uint64) * 8 - 4)]);
    800006c6:	03c95793          	srli	a5,s2,0x3c
    800006ca:	97da                	add	a5,a5,s6
    800006cc:	0007c503          	lbu	a0,0(a5)
    800006d0:	00000097          	auipc	ra,0x0
    800006d4:	bb0080e7          	jalr	-1104(ra) # 80000280 <consputc>
  for (i = 0; i < (sizeof(uint64) * 2); i++, x <<= 4)
    800006d8:	0912                	slli	s2,s2,0x4
    800006da:	34fd                	addiw	s1,s1,-1
    800006dc:	f4ed                	bnez	s1,800006c6 <printf+0x13a>
    800006de:	b7a1                	j	80000626 <printf+0x9a>
      if((s = va_arg(ap, char*)) == 0)
    800006e0:	f8843783          	ld	a5,-120(s0)
    800006e4:	00878713          	addi	a4,a5,8
    800006e8:	f8e43423          	sd	a4,-120(s0)
    800006ec:	6384                	ld	s1,0(a5)
    800006ee:	cc89                	beqz	s1,80000708 <printf+0x17c>
      for(; *s; s++)
    800006f0:	0004c503          	lbu	a0,0(s1)
    800006f4:	d90d                	beqz	a0,80000626 <printf+0x9a>
        consputc(*s);
    800006f6:	00000097          	auipc	ra,0x0
    800006fa:	b8a080e7          	jalr	-1142(ra) # 80000280 <consputc>
      for(; *s; s++)
    800006fe:	0485                	addi	s1,s1,1
    80000700:	0004c503          	lbu	a0,0(s1)
    80000704:	f96d                	bnez	a0,800006f6 <printf+0x16a>
    80000706:	b705                	j	80000626 <printf+0x9a>
        s = "(null)";
    80000708:	00008497          	auipc	s1,0x8
    8000070c:	90848493          	addi	s1,s1,-1784 # 80008010 <etext+0x10>
      for(; *s; s++)
    80000710:	02800513          	li	a0,40
    80000714:	b7cd                	j	800006f6 <printf+0x16a>
      consputc('%');
    80000716:	8556                	mv	a0,s5
    80000718:	00000097          	auipc	ra,0x0
    8000071c:	b68080e7          	jalr	-1176(ra) # 80000280 <consputc>
      break;
    80000720:	b719                	j	80000626 <printf+0x9a>
      consputc('%');
    80000722:	8556                	mv	a0,s5
    80000724:	00000097          	auipc	ra,0x0
    80000728:	b5c080e7          	jalr	-1188(ra) # 80000280 <consputc>
      consputc(c);
    8000072c:	8526                	mv	a0,s1
    8000072e:	00000097          	auipc	ra,0x0
    80000732:	b52080e7          	jalr	-1198(ra) # 80000280 <consputc>
      break;
    80000736:	bdc5                	j	80000626 <printf+0x9a>
  if(locking)
    80000738:	020d9163          	bnez	s11,8000075a <printf+0x1ce>
}
    8000073c:	70e6                	ld	ra,120(sp)
    8000073e:	7446                	ld	s0,112(sp)
    80000740:	74a6                	ld	s1,104(sp)
    80000742:	7906                	ld	s2,96(sp)
    80000744:	69e6                	ld	s3,88(sp)
    80000746:	6a46                	ld	s4,80(sp)
    80000748:	6aa6                	ld	s5,72(sp)
    8000074a:	6b06                	ld	s6,64(sp)
    8000074c:	7be2                	ld	s7,56(sp)
    8000074e:	7c42                	ld	s8,48(sp)
    80000750:	7ca2                	ld	s9,40(sp)
    80000752:	7d02                	ld	s10,32(sp)
    80000754:	6de2                	ld	s11,24(sp)
    80000756:	6129                	addi	sp,sp,192
    80000758:	8082                	ret
    release(&pr.lock);
    8000075a:	00011517          	auipc	a0,0x11
    8000075e:	17e50513          	addi	a0,a0,382 # 800118d8 <pr>
    80000762:	00000097          	auipc	ra,0x0
    80000766:	550080e7          	jalr	1360(ra) # 80000cb2 <release>
}
    8000076a:	bfc9                	j	8000073c <printf+0x1b0>

000000008000076c <printfinit>:
    ;
}

void
printfinit(void)
{
    8000076c:	1101                	addi	sp,sp,-32
    8000076e:	ec06                	sd	ra,24(sp)
    80000770:	e822                	sd	s0,16(sp)
    80000772:	e426                	sd	s1,8(sp)
    80000774:	1000                	addi	s0,sp,32
  initlock(&pr.lock, "pr");
    80000776:	00011497          	auipc	s1,0x11
    8000077a:	16248493          	addi	s1,s1,354 # 800118d8 <pr>
    8000077e:	00008597          	auipc	a1,0x8
    80000782:	8aa58593          	addi	a1,a1,-1878 # 80008028 <etext+0x28>
    80000786:	8526                	mv	a0,s1
    80000788:	00000097          	auipc	ra,0x0
    8000078c:	3e6080e7          	jalr	998(ra) # 80000b6e <initlock>
  pr.locking = 1;
    80000790:	4785                	li	a5,1
    80000792:	cc9c                	sw	a5,24(s1)
}
    80000794:	60e2                	ld	ra,24(sp)
    80000796:	6442                	ld	s0,16(sp)
    80000798:	64a2                	ld	s1,8(sp)
    8000079a:	6105                	addi	sp,sp,32
    8000079c:	8082                	ret

000000008000079e <uartinit>:

void uartstart();

void
uartinit(void)
{
    8000079e:	1141                	addi	sp,sp,-16
    800007a0:	e406                	sd	ra,8(sp)
    800007a2:	e022                	sd	s0,0(sp)
    800007a4:	0800                	addi	s0,sp,16
  // disable interrupts.
  WriteReg(IER, 0x00);
    800007a6:	100007b7          	lui	a5,0x10000
    800007aa:	000780a3          	sb	zero,1(a5) # 10000001 <_entry-0x6fffffff>

  // special mode to set baud rate.
  WriteReg(LCR, LCR_BAUD_LATCH);
    800007ae:	f8000713          	li	a4,-128
    800007b2:	00e781a3          	sb	a4,3(a5)

  // LSB for baud rate of 38.4K.
  WriteReg(0, 0x03);
    800007b6:	470d                	li	a4,3
    800007b8:	00e78023          	sb	a4,0(a5)

  // MSB for baud rate of 38.4K.
  WriteReg(1, 0x00);
    800007bc:	000780a3          	sb	zero,1(a5)

  // leave set-baud mode,
  // and set word length to 8 bits, no parity.
  WriteReg(LCR, LCR_EIGHT_BITS);
    800007c0:	00e781a3          	sb	a4,3(a5)

  // reset and enable FIFOs.
  WriteReg(FCR, FCR_FIFO_ENABLE | FCR_FIFO_CLEAR);
    800007c4:	469d                	li	a3,7
    800007c6:	00d78123          	sb	a3,2(a5)

  // enable transmit and receive interrupts.
  WriteReg(IER, IER_TX_ENABLE | IER_RX_ENABLE);
    800007ca:	00e780a3          	sb	a4,1(a5)

  initlock(&uart_tx_lock, "uart");
    800007ce:	00008597          	auipc	a1,0x8
    800007d2:	87a58593          	addi	a1,a1,-1926 # 80008048 <digits+0x18>
    800007d6:	00011517          	auipc	a0,0x11
    800007da:	12250513          	addi	a0,a0,290 # 800118f8 <uart_tx_lock>
    800007de:	00000097          	auipc	ra,0x0
    800007e2:	390080e7          	jalr	912(ra) # 80000b6e <initlock>
}
    800007e6:	60a2                	ld	ra,8(sp)
    800007e8:	6402                	ld	s0,0(sp)
    800007ea:	0141                	addi	sp,sp,16
    800007ec:	8082                	ret

00000000800007ee <uartputc_sync>:
// use interrupts, for use by kernel printf() and
// to echo characters. it spins waiting for the uart's
// output register to be empty.
void
uartputc_sync(int c)
{
    800007ee:	1101                	addi	sp,sp,-32
    800007f0:	ec06                	sd	ra,24(sp)
    800007f2:	e822                	sd	s0,16(sp)
    800007f4:	e426                	sd	s1,8(sp)
    800007f6:	1000                	addi	s0,sp,32
    800007f8:	84aa                	mv	s1,a0
  push_off();
    800007fa:	00000097          	auipc	ra,0x0
    800007fe:	3b8080e7          	jalr	952(ra) # 80000bb2 <push_off>

  if(panicked){
    80000802:	00008797          	auipc	a5,0x8
    80000806:	7fe7a783          	lw	a5,2046(a5) # 80009000 <panicked>
    for(;;)
      ;
  }

  // wait for Transmit Holding Empty to be set in LSR.
  while((ReadReg(LSR) & LSR_TX_IDLE) == 0)
    8000080a:	10000737          	lui	a4,0x10000
  if(panicked){
    8000080e:	c391                	beqz	a5,80000812 <uartputc_sync+0x24>
    for(;;)
    80000810:	a001                	j	80000810 <uartputc_sync+0x22>
  while((ReadReg(LSR) & LSR_TX_IDLE) == 0)
    80000812:	00574783          	lbu	a5,5(a4) # 10000005 <_entry-0x6ffffffb>
    80000816:	0207f793          	andi	a5,a5,32
    8000081a:	dfe5                	beqz	a5,80000812 <uartputc_sync+0x24>
    ;
  WriteReg(THR, c);
    8000081c:	0ff4f513          	andi	a0,s1,255
    80000820:	100007b7          	lui	a5,0x10000
    80000824:	00a78023          	sb	a0,0(a5) # 10000000 <_entry-0x70000000>

  pop_off();
    80000828:	00000097          	auipc	ra,0x0
    8000082c:	42a080e7          	jalr	1066(ra) # 80000c52 <pop_off>
}
    80000830:	60e2                	ld	ra,24(sp)
    80000832:	6442                	ld	s0,16(sp)
    80000834:	64a2                	ld	s1,8(sp)
    80000836:	6105                	addi	sp,sp,32
    80000838:	8082                	ret

000000008000083a <uartstart>:
// called from both the top- and bottom-half.
void
uartstart()
{
  while(1){
    if(uart_tx_w == uart_tx_r){
    8000083a:	00008797          	auipc	a5,0x8
    8000083e:	7ca7a783          	lw	a5,1994(a5) # 80009004 <uart_tx_r>
    80000842:	00008717          	auipc	a4,0x8
    80000846:	7c672703          	lw	a4,1990(a4) # 80009008 <uart_tx_w>
    8000084a:	08f70063          	beq	a4,a5,800008ca <uartstart+0x90>
{
    8000084e:	7139                	addi	sp,sp,-64
    80000850:	fc06                	sd	ra,56(sp)
    80000852:	f822                	sd	s0,48(sp)
    80000854:	f426                	sd	s1,40(sp)
    80000856:	f04a                	sd	s2,32(sp)
    80000858:	ec4e                	sd	s3,24(sp)
    8000085a:	e852                	sd	s4,16(sp)
    8000085c:	e456                	sd	s5,8(sp)
    8000085e:	0080                	addi	s0,sp,64
      // transmit buffer is empty.
      return;
    }
    
    if((ReadReg(LSR) & LSR_TX_IDLE) == 0){
    80000860:	10000937          	lui	s2,0x10000
      // so we cannot give it another byte.
      // it will interrupt when it's ready for a new byte.
      return;
    }
    
    int c = uart_tx_buf[uart_tx_r];
    80000864:	00011a97          	auipc	s5,0x11
    80000868:	094a8a93          	addi	s5,s5,148 # 800118f8 <uart_tx_lock>
    uart_tx_r = (uart_tx_r + 1) % UART_TX_BUF_SIZE;
    8000086c:	00008497          	auipc	s1,0x8
    80000870:	79848493          	addi	s1,s1,1944 # 80009004 <uart_tx_r>
    if(uart_tx_w == uart_tx_r){
    80000874:	00008a17          	auipc	s4,0x8
    80000878:	794a0a13          	addi	s4,s4,1940 # 80009008 <uart_tx_w>
    if((ReadReg(LSR) & LSR_TX_IDLE) == 0){
    8000087c:	00594703          	lbu	a4,5(s2) # 10000005 <_entry-0x6ffffffb>
    80000880:	02077713          	andi	a4,a4,32
    80000884:	cb15                	beqz	a4,800008b8 <uartstart+0x7e>
    int c = uart_tx_buf[uart_tx_r];
    80000886:	00fa8733          	add	a4,s5,a5
    8000088a:	01874983          	lbu	s3,24(a4)
    uart_tx_r = (uart_tx_r + 1) % UART_TX_BUF_SIZE;
    8000088e:	2785                	addiw	a5,a5,1
    80000890:	41f7d71b          	sraiw	a4,a5,0x1f
    80000894:	01b7571b          	srliw	a4,a4,0x1b
    80000898:	9fb9                	addw	a5,a5,a4
    8000089a:	8bfd                	andi	a5,a5,31
    8000089c:	9f99                	subw	a5,a5,a4
    8000089e:	c09c                	sw	a5,0(s1)
    
    // maybe uartputc() is waiting for space in the buffer.
    wakeup(&uart_tx_r);
    800008a0:	8526                	mv	a0,s1
    800008a2:	00002097          	auipc	ra,0x2
    800008a6:	bbe080e7          	jalr	-1090(ra) # 80002460 <wakeup>
    
    WriteReg(THR, c);
    800008aa:	01390023          	sb	s3,0(s2)
    if(uart_tx_w == uart_tx_r){
    800008ae:	409c                	lw	a5,0(s1)
    800008b0:	000a2703          	lw	a4,0(s4)
    800008b4:	fcf714e3          	bne	a4,a5,8000087c <uartstart+0x42>
  }
}
    800008b8:	70e2                	ld	ra,56(sp)
    800008ba:	7442                	ld	s0,48(sp)
    800008bc:	74a2                	ld	s1,40(sp)
    800008be:	7902                	ld	s2,32(sp)
    800008c0:	69e2                	ld	s3,24(sp)
    800008c2:	6a42                	ld	s4,16(sp)
    800008c4:	6aa2                	ld	s5,8(sp)
    800008c6:	6121                	addi	sp,sp,64
    800008c8:	8082                	ret
    800008ca:	8082                	ret

00000000800008cc <uartputc>:
{
    800008cc:	7179                	addi	sp,sp,-48
    800008ce:	f406                	sd	ra,40(sp)
    800008d0:	f022                	sd	s0,32(sp)
    800008d2:	ec26                	sd	s1,24(sp)
    800008d4:	e84a                	sd	s2,16(sp)
    800008d6:	e44e                	sd	s3,8(sp)
    800008d8:	e052                	sd	s4,0(sp)
    800008da:	1800                	addi	s0,sp,48
    800008dc:	84aa                	mv	s1,a0
  acquire(&uart_tx_lock);
    800008de:	00011517          	auipc	a0,0x11
    800008e2:	01a50513          	addi	a0,a0,26 # 800118f8 <uart_tx_lock>
    800008e6:	00000097          	auipc	ra,0x0
    800008ea:	318080e7          	jalr	792(ra) # 80000bfe <acquire>
  if(panicked){
    800008ee:	00008797          	auipc	a5,0x8
    800008f2:	7127a783          	lw	a5,1810(a5) # 80009000 <panicked>
    800008f6:	c391                	beqz	a5,800008fa <uartputc+0x2e>
    for(;;)
    800008f8:	a001                	j	800008f8 <uartputc+0x2c>
    if(((uart_tx_w + 1) % UART_TX_BUF_SIZE) == uart_tx_r){
    800008fa:	00008697          	auipc	a3,0x8
    800008fe:	70e6a683          	lw	a3,1806(a3) # 80009008 <uart_tx_w>
    80000902:	0016879b          	addiw	a5,a3,1
    80000906:	41f7d71b          	sraiw	a4,a5,0x1f
    8000090a:	01b7571b          	srliw	a4,a4,0x1b
    8000090e:	9fb9                	addw	a5,a5,a4
    80000910:	8bfd                	andi	a5,a5,31
    80000912:	9f99                	subw	a5,a5,a4
    80000914:	00008717          	auipc	a4,0x8
    80000918:	6f072703          	lw	a4,1776(a4) # 80009004 <uart_tx_r>
    8000091c:	04f71363          	bne	a4,a5,80000962 <uartputc+0x96>
      sleep(&uart_tx_r, &uart_tx_lock);
    80000920:	00011a17          	auipc	s4,0x11
    80000924:	fd8a0a13          	addi	s4,s4,-40 # 800118f8 <uart_tx_lock>
    80000928:	00008917          	auipc	s2,0x8
    8000092c:	6dc90913          	addi	s2,s2,1756 # 80009004 <uart_tx_r>
    if(((uart_tx_w + 1) % UART_TX_BUF_SIZE) == uart_tx_r){
    80000930:	00008997          	auipc	s3,0x8
    80000934:	6d898993          	addi	s3,s3,1752 # 80009008 <uart_tx_w>
      sleep(&uart_tx_r, &uart_tx_lock);
    80000938:	85d2                	mv	a1,s4
    8000093a:	854a                	mv	a0,s2
    8000093c:	00002097          	auipc	ra,0x2
    80000940:	9a4080e7          	jalr	-1628(ra) # 800022e0 <sleep>
    if(((uart_tx_w + 1) % UART_TX_BUF_SIZE) == uart_tx_r){
    80000944:	0009a683          	lw	a3,0(s3)
    80000948:	0016879b          	addiw	a5,a3,1
    8000094c:	41f7d71b          	sraiw	a4,a5,0x1f
    80000950:	01b7571b          	srliw	a4,a4,0x1b
    80000954:	9fb9                	addw	a5,a5,a4
    80000956:	8bfd                	andi	a5,a5,31
    80000958:	9f99                	subw	a5,a5,a4
    8000095a:	00092703          	lw	a4,0(s2)
    8000095e:	fcf70de3          	beq	a4,a5,80000938 <uartputc+0x6c>
      uart_tx_buf[uart_tx_w] = c;
    80000962:	00011917          	auipc	s2,0x11
    80000966:	f9690913          	addi	s2,s2,-106 # 800118f8 <uart_tx_lock>
    8000096a:	96ca                	add	a3,a3,s2
    8000096c:	00968c23          	sb	s1,24(a3)
      uart_tx_w = (uart_tx_w + 1) % UART_TX_BUF_SIZE;
    80000970:	00008717          	auipc	a4,0x8
    80000974:	68f72c23          	sw	a5,1688(a4) # 80009008 <uart_tx_w>
      uartstart();
    80000978:	00000097          	auipc	ra,0x0
    8000097c:	ec2080e7          	jalr	-318(ra) # 8000083a <uartstart>
      release(&uart_tx_lock);
    80000980:	854a                	mv	a0,s2
    80000982:	00000097          	auipc	ra,0x0
    80000986:	330080e7          	jalr	816(ra) # 80000cb2 <release>
}
    8000098a:	70a2                	ld	ra,40(sp)
    8000098c:	7402                	ld	s0,32(sp)
    8000098e:	64e2                	ld	s1,24(sp)
    80000990:	6942                	ld	s2,16(sp)
    80000992:	69a2                	ld	s3,8(sp)
    80000994:	6a02                	ld	s4,0(sp)
    80000996:	6145                	addi	sp,sp,48
    80000998:	8082                	ret

000000008000099a <uartgetc>:

// read one input character from the UART.
// return -1 if none is waiting.
int
uartgetc(void)
{
    8000099a:	1141                	addi	sp,sp,-16
    8000099c:	e422                	sd	s0,8(sp)
    8000099e:	0800                	addi	s0,sp,16
  if(ReadReg(LSR) & 0x01){
    800009a0:	100007b7          	lui	a5,0x10000
    800009a4:	0057c783          	lbu	a5,5(a5) # 10000005 <_entry-0x6ffffffb>
    800009a8:	8b85                	andi	a5,a5,1
    800009aa:	cb91                	beqz	a5,800009be <uartgetc+0x24>
    // input data is ready.
    return ReadReg(RHR);
    800009ac:	100007b7          	lui	a5,0x10000
    800009b0:	0007c503          	lbu	a0,0(a5) # 10000000 <_entry-0x70000000>
    800009b4:	0ff57513          	andi	a0,a0,255
  } else {
    return -1;
  }
}
    800009b8:	6422                	ld	s0,8(sp)
    800009ba:	0141                	addi	sp,sp,16
    800009bc:	8082                	ret
    return -1;
    800009be:	557d                	li	a0,-1
    800009c0:	bfe5                	j	800009b8 <uartgetc+0x1e>

00000000800009c2 <uartintr>:
// handle a uart interrupt, raised because input has
// arrived, or the uart is ready for more output, or
// both. called from trap.c.
void
uartintr(void)
{
    800009c2:	1101                	addi	sp,sp,-32
    800009c4:	ec06                	sd	ra,24(sp)
    800009c6:	e822                	sd	s0,16(sp)
    800009c8:	e426                	sd	s1,8(sp)
    800009ca:	1000                	addi	s0,sp,32
  // read and process incoming characters.
  while(1){
    int c = uartgetc();
    if(c == -1)
    800009cc:	54fd                	li	s1,-1
    800009ce:	a029                	j	800009d8 <uartintr+0x16>
      break;
    consoleintr(c);
    800009d0:	00000097          	auipc	ra,0x0
    800009d4:	8f2080e7          	jalr	-1806(ra) # 800002c2 <consoleintr>
    int c = uartgetc();
    800009d8:	00000097          	auipc	ra,0x0
    800009dc:	fc2080e7          	jalr	-62(ra) # 8000099a <uartgetc>
    if(c == -1)
    800009e0:	fe9518e3          	bne	a0,s1,800009d0 <uartintr+0xe>
  }

  // send buffered characters.
  acquire(&uart_tx_lock);
    800009e4:	00011497          	auipc	s1,0x11
    800009e8:	f1448493          	addi	s1,s1,-236 # 800118f8 <uart_tx_lock>
    800009ec:	8526                	mv	a0,s1
    800009ee:	00000097          	auipc	ra,0x0
    800009f2:	210080e7          	jalr	528(ra) # 80000bfe <acquire>
  uartstart();
    800009f6:	00000097          	auipc	ra,0x0
    800009fa:	e44080e7          	jalr	-444(ra) # 8000083a <uartstart>
  release(&uart_tx_lock);
    800009fe:	8526                	mv	a0,s1
    80000a00:	00000097          	auipc	ra,0x0
    80000a04:	2b2080e7          	jalr	690(ra) # 80000cb2 <release>
}
    80000a08:	60e2                	ld	ra,24(sp)
    80000a0a:	6442                	ld	s0,16(sp)
    80000a0c:	64a2                	ld	s1,8(sp)
    80000a0e:	6105                	addi	sp,sp,32
    80000a10:	8082                	ret

0000000080000a12 <kfree>:
// which normally should have been returned by a
// call to kalloc().  (The exception is when
// initializing the allocator; see kinit above.)
void
kfree(void *pa)
{
    80000a12:	1101                	addi	sp,sp,-32
    80000a14:	ec06                	sd	ra,24(sp)
    80000a16:	e822                	sd	s0,16(sp)
    80000a18:	e426                	sd	s1,8(sp)
    80000a1a:	e04a                	sd	s2,0(sp)
    80000a1c:	1000                	addi	s0,sp,32
  struct run *r;

  if(((uint64)pa % PGSIZE) != 0 || (char*)pa < end || (uint64)pa >= PHYSTOP)
    80000a1e:	03451793          	slli	a5,a0,0x34
    80000a22:	ebb9                	bnez	a5,80000a78 <kfree+0x66>
    80000a24:	84aa                	mv	s1,a0
    80000a26:	00026797          	auipc	a5,0x26
    80000a2a:	5fa78793          	addi	a5,a5,1530 # 80027020 <end>
    80000a2e:	04f56563          	bltu	a0,a5,80000a78 <kfree+0x66>
    80000a32:	47c5                	li	a5,17
    80000a34:	07ee                	slli	a5,a5,0x1b
    80000a36:	04f57163          	bgeu	a0,a5,80000a78 <kfree+0x66>
    panic("kfree");

  // Fill with junk to catch dangling refs.
  memset(pa, 1, PGSIZE);
    80000a3a:	6605                	lui	a2,0x1
    80000a3c:	4585                	li	a1,1
    80000a3e:	00000097          	auipc	ra,0x0
    80000a42:	2bc080e7          	jalr	700(ra) # 80000cfa <memset>

  r = (struct run*)pa;

  acquire(&kmem.lock);
    80000a46:	00011917          	auipc	s2,0x11
    80000a4a:	eea90913          	addi	s2,s2,-278 # 80011930 <kmem>
    80000a4e:	854a                	mv	a0,s2
    80000a50:	00000097          	auipc	ra,0x0
    80000a54:	1ae080e7          	jalr	430(ra) # 80000bfe <acquire>
  r->next = kmem.freelist;
    80000a58:	01893783          	ld	a5,24(s2)
    80000a5c:	e09c                	sd	a5,0(s1)
  kmem.freelist = r;
    80000a5e:	00993c23          	sd	s1,24(s2)
  release(&kmem.lock);
    80000a62:	854a                	mv	a0,s2
    80000a64:	00000097          	auipc	ra,0x0
    80000a68:	24e080e7          	jalr	590(ra) # 80000cb2 <release>
}
    80000a6c:	60e2                	ld	ra,24(sp)
    80000a6e:	6442                	ld	s0,16(sp)
    80000a70:	64a2                	ld	s1,8(sp)
    80000a72:	6902                	ld	s2,0(sp)
    80000a74:	6105                	addi	sp,sp,32
    80000a76:	8082                	ret
    panic("kfree");
    80000a78:	00007517          	auipc	a0,0x7
    80000a7c:	5d850513          	addi	a0,a0,1496 # 80008050 <digits+0x20>
    80000a80:	00000097          	auipc	ra,0x0
    80000a84:	ac2080e7          	jalr	-1342(ra) # 80000542 <panic>

0000000080000a88 <freerange>:
{
    80000a88:	7179                	addi	sp,sp,-48
    80000a8a:	f406                	sd	ra,40(sp)
    80000a8c:	f022                	sd	s0,32(sp)
    80000a8e:	ec26                	sd	s1,24(sp)
    80000a90:	e84a                	sd	s2,16(sp)
    80000a92:	e44e                	sd	s3,8(sp)
    80000a94:	e052                	sd	s4,0(sp)
    80000a96:	1800                	addi	s0,sp,48
  p = (char*)PGROUNDUP((uint64)pa_start);
    80000a98:	6785                	lui	a5,0x1
    80000a9a:	fff78493          	addi	s1,a5,-1 # fff <_entry-0x7ffff001>
    80000a9e:	94aa                	add	s1,s1,a0
    80000aa0:	757d                	lui	a0,0xfffff
    80000aa2:	8ce9                	and	s1,s1,a0
  for(; p + PGSIZE <= (char*)pa_end; p += PGSIZE)
    80000aa4:	94be                	add	s1,s1,a5
    80000aa6:	0095ee63          	bltu	a1,s1,80000ac2 <freerange+0x3a>
    80000aaa:	892e                	mv	s2,a1
    kfree(p);
    80000aac:	7a7d                	lui	s4,0xfffff
  for(; p + PGSIZE <= (char*)pa_end; p += PGSIZE)
    80000aae:	6985                	lui	s3,0x1
    kfree(p);
    80000ab0:	01448533          	add	a0,s1,s4
    80000ab4:	00000097          	auipc	ra,0x0
    80000ab8:	f5e080e7          	jalr	-162(ra) # 80000a12 <kfree>
  for(; p + PGSIZE <= (char*)pa_end; p += PGSIZE)
    80000abc:	94ce                	add	s1,s1,s3
    80000abe:	fe9979e3          	bgeu	s2,s1,80000ab0 <freerange+0x28>
}
    80000ac2:	70a2                	ld	ra,40(sp)
    80000ac4:	7402                	ld	s0,32(sp)
    80000ac6:	64e2                	ld	s1,24(sp)
    80000ac8:	6942                	ld	s2,16(sp)
    80000aca:	69a2                	ld	s3,8(sp)
    80000acc:	6a02                	ld	s4,0(sp)
    80000ace:	6145                	addi	sp,sp,48
    80000ad0:	8082                	ret

0000000080000ad2 <kinit>:
{
    80000ad2:	1141                	addi	sp,sp,-16
    80000ad4:	e406                	sd	ra,8(sp)
    80000ad6:	e022                	sd	s0,0(sp)
    80000ad8:	0800                	addi	s0,sp,16
  initlock(&kmem.lock, "kmem");
    80000ada:	00007597          	auipc	a1,0x7
    80000ade:	57e58593          	addi	a1,a1,1406 # 80008058 <digits+0x28>
    80000ae2:	00011517          	auipc	a0,0x11
    80000ae6:	e4e50513          	addi	a0,a0,-434 # 80011930 <kmem>
    80000aea:	00000097          	auipc	ra,0x0
    80000aee:	084080e7          	jalr	132(ra) # 80000b6e <initlock>
  freerange(end, (void*)PHYSTOP);
    80000af2:	45c5                	li	a1,17
    80000af4:	05ee                	slli	a1,a1,0x1b
    80000af6:	00026517          	auipc	a0,0x26
    80000afa:	52a50513          	addi	a0,a0,1322 # 80027020 <end>
    80000afe:	00000097          	auipc	ra,0x0
    80000b02:	f8a080e7          	jalr	-118(ra) # 80000a88 <freerange>
}
    80000b06:	60a2                	ld	ra,8(sp)
    80000b08:	6402                	ld	s0,0(sp)
    80000b0a:	0141                	addi	sp,sp,16
    80000b0c:	8082                	ret

0000000080000b0e <kalloc>:
// Allocate one 4096-byte page of physical memory.
// Returns a pointer that the kernel can use.
// Returns 0 if the memory cannot be allocated.
void *
kalloc(void)
{
    80000b0e:	1101                	addi	sp,sp,-32
    80000b10:	ec06                	sd	ra,24(sp)
    80000b12:	e822                	sd	s0,16(sp)
    80000b14:	e426                	sd	s1,8(sp)
    80000b16:	1000                	addi	s0,sp,32
  struct run *r;

  acquire(&kmem.lock);
    80000b18:	00011497          	auipc	s1,0x11
    80000b1c:	e1848493          	addi	s1,s1,-488 # 80011930 <kmem>
    80000b20:	8526                	mv	a0,s1
    80000b22:	00000097          	auipc	ra,0x0
    80000b26:	0dc080e7          	jalr	220(ra) # 80000bfe <acquire>
  r = kmem.freelist;
    80000b2a:	6c84                	ld	s1,24(s1)
  if(r)
    80000b2c:	c885                	beqz	s1,80000b5c <kalloc+0x4e>
    kmem.freelist = r->next;
    80000b2e:	609c                	ld	a5,0(s1)
    80000b30:	00011517          	auipc	a0,0x11
    80000b34:	e0050513          	addi	a0,a0,-512 # 80011930 <kmem>
    80000b38:	ed1c                	sd	a5,24(a0)
  release(&kmem.lock);
    80000b3a:	00000097          	auipc	ra,0x0
    80000b3e:	178080e7          	jalr	376(ra) # 80000cb2 <release>

  if(r)
    memset((char*)r, 5, PGSIZE); // fill with junk
    80000b42:	6605                	lui	a2,0x1
    80000b44:	4595                	li	a1,5
    80000b46:	8526                	mv	a0,s1
    80000b48:	00000097          	auipc	ra,0x0
    80000b4c:	1b2080e7          	jalr	434(ra) # 80000cfa <memset>
  return (void*)r;
}
    80000b50:	8526                	mv	a0,s1
    80000b52:	60e2                	ld	ra,24(sp)
    80000b54:	6442                	ld	s0,16(sp)
    80000b56:	64a2                	ld	s1,8(sp)
    80000b58:	6105                	addi	sp,sp,32
    80000b5a:	8082                	ret
  release(&kmem.lock);
    80000b5c:	00011517          	auipc	a0,0x11
    80000b60:	dd450513          	addi	a0,a0,-556 # 80011930 <kmem>
    80000b64:	00000097          	auipc	ra,0x0
    80000b68:	14e080e7          	jalr	334(ra) # 80000cb2 <release>
  if(r)
    80000b6c:	b7d5                	j	80000b50 <kalloc+0x42>

0000000080000b6e <initlock>:
#include "proc.h"
#include "defs.h"

void
initlock(struct spinlock *lk, char *name)
{
    80000b6e:	1141                	addi	sp,sp,-16
    80000b70:	e422                	sd	s0,8(sp)
    80000b72:	0800                	addi	s0,sp,16
  lk->name = name;
    80000b74:	e50c                	sd	a1,8(a0)
  lk->locked = 0;
    80000b76:	00052023          	sw	zero,0(a0)
  lk->cpu = 0;
    80000b7a:	00053823          	sd	zero,16(a0)
}
    80000b7e:	6422                	ld	s0,8(sp)
    80000b80:	0141                	addi	sp,sp,16
    80000b82:	8082                	ret

0000000080000b84 <holding>:
// Interrupts must be off.
int
holding(struct spinlock *lk)
{
  int r;
  r = (lk->locked && lk->cpu == mycpu());
    80000b84:	411c                	lw	a5,0(a0)
    80000b86:	e399                	bnez	a5,80000b8c <holding+0x8>
    80000b88:	4501                	li	a0,0
  return r;
}
    80000b8a:	8082                	ret
{
    80000b8c:	1101                	addi	sp,sp,-32
    80000b8e:	ec06                	sd	ra,24(sp)
    80000b90:	e822                	sd	s0,16(sp)
    80000b92:	e426                	sd	s1,8(sp)
    80000b94:	1000                	addi	s0,sp,32
  r = (lk->locked && lk->cpu == mycpu());
    80000b96:	6904                	ld	s1,16(a0)
    80000b98:	00001097          	auipc	ra,0x1
    80000b9c:	e80080e7          	jalr	-384(ra) # 80001a18 <mycpu>
    80000ba0:	40a48533          	sub	a0,s1,a0
    80000ba4:	00153513          	seqz	a0,a0
}
    80000ba8:	60e2                	ld	ra,24(sp)
    80000baa:	6442                	ld	s0,16(sp)
    80000bac:	64a2                	ld	s1,8(sp)
    80000bae:	6105                	addi	sp,sp,32
    80000bb0:	8082                	ret

0000000080000bb2 <push_off>:
// it takes two pop_off()s to undo two push_off()s.  Also, if interrupts
// are initially off, then push_off, pop_off leaves them off.

void
push_off(void)
{
    80000bb2:	1101                	addi	sp,sp,-32
    80000bb4:	ec06                	sd	ra,24(sp)
    80000bb6:	e822                	sd	s0,16(sp)
    80000bb8:	e426                	sd	s1,8(sp)
    80000bba:	1000                	addi	s0,sp,32
  asm volatile("csrr %0, sstatus" : "=r" (x) );
    80000bbc:	100024f3          	csrr	s1,sstatus
    80000bc0:	100027f3          	csrr	a5,sstatus
  w_sstatus(r_sstatus() & ~SSTATUS_SIE);
    80000bc4:	9bf5                	andi	a5,a5,-3
  asm volatile("csrw sstatus, %0" : : "r" (x));
    80000bc6:	10079073          	csrw	sstatus,a5
  int old = intr_get();

  intr_off();
  if(mycpu()->noff == 0)
    80000bca:	00001097          	auipc	ra,0x1
    80000bce:	e4e080e7          	jalr	-434(ra) # 80001a18 <mycpu>
    80000bd2:	5d3c                	lw	a5,120(a0)
    80000bd4:	cf89                	beqz	a5,80000bee <push_off+0x3c>
    mycpu()->intena = old;
  mycpu()->noff += 1;
    80000bd6:	00001097          	auipc	ra,0x1
    80000bda:	e42080e7          	jalr	-446(ra) # 80001a18 <mycpu>
    80000bde:	5d3c                	lw	a5,120(a0)
    80000be0:	2785                	addiw	a5,a5,1
    80000be2:	dd3c                	sw	a5,120(a0)
}
    80000be4:	60e2                	ld	ra,24(sp)
    80000be6:	6442                	ld	s0,16(sp)
    80000be8:	64a2                	ld	s1,8(sp)
    80000bea:	6105                	addi	sp,sp,32
    80000bec:	8082                	ret
    mycpu()->intena = old;
    80000bee:	00001097          	auipc	ra,0x1
    80000bf2:	e2a080e7          	jalr	-470(ra) # 80001a18 <mycpu>
  return (x & SSTATUS_SIE) != 0;
    80000bf6:	8085                	srli	s1,s1,0x1
    80000bf8:	8885                	andi	s1,s1,1
    80000bfa:	dd64                	sw	s1,124(a0)
    80000bfc:	bfe9                	j	80000bd6 <push_off+0x24>

0000000080000bfe <acquire>:
{
    80000bfe:	1101                	addi	sp,sp,-32
    80000c00:	ec06                	sd	ra,24(sp)
    80000c02:	e822                	sd	s0,16(sp)
    80000c04:	e426                	sd	s1,8(sp)
    80000c06:	1000                	addi	s0,sp,32
    80000c08:	84aa                	mv	s1,a0
  push_off(); // disable interrupts to avoid deadlock.
    80000c0a:	00000097          	auipc	ra,0x0
    80000c0e:	fa8080e7          	jalr	-88(ra) # 80000bb2 <push_off>
  if(holding(lk))
    80000c12:	8526                	mv	a0,s1
    80000c14:	00000097          	auipc	ra,0x0
    80000c18:	f70080e7          	jalr	-144(ra) # 80000b84 <holding>
  while(__sync_lock_test_and_set(&lk->locked, 1) != 0)
    80000c1c:	4705                	li	a4,1
  if(holding(lk))
    80000c1e:	e115                	bnez	a0,80000c42 <acquire+0x44>
  while(__sync_lock_test_and_set(&lk->locked, 1) != 0)
    80000c20:	87ba                	mv	a5,a4
    80000c22:	0cf4a7af          	amoswap.w.aq	a5,a5,(s1)
    80000c26:	2781                	sext.w	a5,a5
    80000c28:	ffe5                	bnez	a5,80000c20 <acquire+0x22>
  __sync_synchronize();
    80000c2a:	0ff0000f          	fence
  lk->cpu = mycpu();
    80000c2e:	00001097          	auipc	ra,0x1
    80000c32:	dea080e7          	jalr	-534(ra) # 80001a18 <mycpu>
    80000c36:	e888                	sd	a0,16(s1)
}
    80000c38:	60e2                	ld	ra,24(sp)
    80000c3a:	6442                	ld	s0,16(sp)
    80000c3c:	64a2                	ld	s1,8(sp)
    80000c3e:	6105                	addi	sp,sp,32
    80000c40:	8082                	ret
    panic("acquire");
    80000c42:	00007517          	auipc	a0,0x7
    80000c46:	41e50513          	addi	a0,a0,1054 # 80008060 <digits+0x30>
    80000c4a:	00000097          	auipc	ra,0x0
    80000c4e:	8f8080e7          	jalr	-1800(ra) # 80000542 <panic>

0000000080000c52 <pop_off>:

void
pop_off(void)
{
    80000c52:	1141                	addi	sp,sp,-16
    80000c54:	e406                	sd	ra,8(sp)
    80000c56:	e022                	sd	s0,0(sp)
    80000c58:	0800                	addi	s0,sp,16
  struct cpu *c = mycpu();
    80000c5a:	00001097          	auipc	ra,0x1
    80000c5e:	dbe080e7          	jalr	-578(ra) # 80001a18 <mycpu>
  asm volatile("csrr %0, sstatus" : "=r" (x) );
    80000c62:	100027f3          	csrr	a5,sstatus
  return (x & SSTATUS_SIE) != 0;
    80000c66:	8b89                	andi	a5,a5,2
  if(intr_get())
    80000c68:	e78d                	bnez	a5,80000c92 <pop_off+0x40>
    panic("pop_off - interruptible");
  if(c->noff < 1)
    80000c6a:	5d3c                	lw	a5,120(a0)
    80000c6c:	02f05b63          	blez	a5,80000ca2 <pop_off+0x50>
    panic("pop_off");
  c->noff -= 1;
    80000c70:	37fd                	addiw	a5,a5,-1
    80000c72:	0007871b          	sext.w	a4,a5
    80000c76:	dd3c                	sw	a5,120(a0)
  if(c->noff == 0 && c->intena)
    80000c78:	eb09                	bnez	a4,80000c8a <pop_off+0x38>
    80000c7a:	5d7c                	lw	a5,124(a0)
    80000c7c:	c799                	beqz	a5,80000c8a <pop_off+0x38>
  asm volatile("csrr %0, sstatus" : "=r" (x) );
    80000c7e:	100027f3          	csrr	a5,sstatus
  w_sstatus(r_sstatus() | SSTATUS_SIE);
    80000c82:	0027e793          	ori	a5,a5,2
  asm volatile("csrw sstatus, %0" : : "r" (x));
    80000c86:	10079073          	csrw	sstatus,a5
    intr_on();
}
    80000c8a:	60a2                	ld	ra,8(sp)
    80000c8c:	6402                	ld	s0,0(sp)
    80000c8e:	0141                	addi	sp,sp,16
    80000c90:	8082                	ret
    panic("pop_off - interruptible");
    80000c92:	00007517          	auipc	a0,0x7
    80000c96:	3d650513          	addi	a0,a0,982 # 80008068 <digits+0x38>
    80000c9a:	00000097          	auipc	ra,0x0
    80000c9e:	8a8080e7          	jalr	-1880(ra) # 80000542 <panic>
    panic("pop_off");
    80000ca2:	00007517          	auipc	a0,0x7
    80000ca6:	3de50513          	addi	a0,a0,990 # 80008080 <digits+0x50>
    80000caa:	00000097          	auipc	ra,0x0
    80000cae:	898080e7          	jalr	-1896(ra) # 80000542 <panic>

0000000080000cb2 <release>:
{
    80000cb2:	1101                	addi	sp,sp,-32
    80000cb4:	ec06                	sd	ra,24(sp)
    80000cb6:	e822                	sd	s0,16(sp)
    80000cb8:	e426                	sd	s1,8(sp)
    80000cba:	1000                	addi	s0,sp,32
    80000cbc:	84aa                	mv	s1,a0
  if(!holding(lk))
    80000cbe:	00000097          	auipc	ra,0x0
    80000cc2:	ec6080e7          	jalr	-314(ra) # 80000b84 <holding>
    80000cc6:	c115                	beqz	a0,80000cea <release+0x38>
  lk->cpu = 0;
    80000cc8:	0004b823          	sd	zero,16(s1)
  __sync_synchronize();
    80000ccc:	0ff0000f          	fence
  __sync_lock_release(&lk->locked);
    80000cd0:	0f50000f          	fence	iorw,ow
    80000cd4:	0804a02f          	amoswap.w	zero,zero,(s1)
  pop_off();
    80000cd8:	00000097          	auipc	ra,0x0
    80000cdc:	f7a080e7          	jalr	-134(ra) # 80000c52 <pop_off>
}
    80000ce0:	60e2                	ld	ra,24(sp)
    80000ce2:	6442                	ld	s0,16(sp)
    80000ce4:	64a2                	ld	s1,8(sp)
    80000ce6:	6105                	addi	sp,sp,32
    80000ce8:	8082                	ret
    panic("release");
    80000cea:	00007517          	auipc	a0,0x7
    80000cee:	39e50513          	addi	a0,a0,926 # 80008088 <digits+0x58>
    80000cf2:	00000097          	auipc	ra,0x0
    80000cf6:	850080e7          	jalr	-1968(ra) # 80000542 <panic>

0000000080000cfa <memset>:
#include "types.h"

void*
memset(void *dst, int c, uint n)
{
    80000cfa:	1141                	addi	sp,sp,-16
    80000cfc:	e422                	sd	s0,8(sp)
    80000cfe:	0800                	addi	s0,sp,16
  char *cdst = (char *) dst;
  int i;
  for(i = 0; i < n; i++){
    80000d00:	ca19                	beqz	a2,80000d16 <memset+0x1c>
    80000d02:	87aa                	mv	a5,a0
    80000d04:	1602                	slli	a2,a2,0x20
    80000d06:	9201                	srli	a2,a2,0x20
    80000d08:	00a60733          	add	a4,a2,a0
    cdst[i] = c;
    80000d0c:	00b78023          	sb	a1,0(a5)
  for(i = 0; i < n; i++){
    80000d10:	0785                	addi	a5,a5,1
    80000d12:	fee79de3          	bne	a5,a4,80000d0c <memset+0x12>
  }
  return dst;
}
    80000d16:	6422                	ld	s0,8(sp)
    80000d18:	0141                	addi	sp,sp,16
    80000d1a:	8082                	ret

0000000080000d1c <memcmp>:

int
memcmp(const void *v1, const void *v2, uint n)
{
    80000d1c:	1141                	addi	sp,sp,-16
    80000d1e:	e422                	sd	s0,8(sp)
    80000d20:	0800                	addi	s0,sp,16
  const uchar *s1, *s2;

  s1 = v1;
  s2 = v2;
  while(n-- > 0){
    80000d22:	ca05                	beqz	a2,80000d52 <memcmp+0x36>
    80000d24:	fff6069b          	addiw	a3,a2,-1
    80000d28:	1682                	slli	a3,a3,0x20
    80000d2a:	9281                	srli	a3,a3,0x20
    80000d2c:	0685                	addi	a3,a3,1
    80000d2e:	96aa                	add	a3,a3,a0
    if(*s1 != *s2)
    80000d30:	00054783          	lbu	a5,0(a0)
    80000d34:	0005c703          	lbu	a4,0(a1)
    80000d38:	00e79863          	bne	a5,a4,80000d48 <memcmp+0x2c>
      return *s1 - *s2;
    s1++, s2++;
    80000d3c:	0505                	addi	a0,a0,1
    80000d3e:	0585                	addi	a1,a1,1
  while(n-- > 0){
    80000d40:	fed518e3          	bne	a0,a3,80000d30 <memcmp+0x14>
  }

  return 0;
    80000d44:	4501                	li	a0,0
    80000d46:	a019                	j	80000d4c <memcmp+0x30>
      return *s1 - *s2;
    80000d48:	40e7853b          	subw	a0,a5,a4
}
    80000d4c:	6422                	ld	s0,8(sp)
    80000d4e:	0141                	addi	sp,sp,16
    80000d50:	8082                	ret
  return 0;
    80000d52:	4501                	li	a0,0
    80000d54:	bfe5                	j	80000d4c <memcmp+0x30>

0000000080000d56 <memmove>:

void*
memmove(void *dst, const void *src, uint n)
{
    80000d56:	1141                	addi	sp,sp,-16
    80000d58:	e422                	sd	s0,8(sp)
    80000d5a:	0800                	addi	s0,sp,16
  const char *s;
  char *d;

  s = src;
  d = dst;
  if(s < d && s + n > d){
    80000d5c:	02a5e563          	bltu	a1,a0,80000d86 <memmove+0x30>
    s += n;
    d += n;
    while(n-- > 0)
      *--d = *--s;
  } else
    while(n-- > 0)
    80000d60:	fff6069b          	addiw	a3,a2,-1
    80000d64:	ce11                	beqz	a2,80000d80 <memmove+0x2a>
    80000d66:	1682                	slli	a3,a3,0x20
    80000d68:	9281                	srli	a3,a3,0x20
    80000d6a:	0685                	addi	a3,a3,1
    80000d6c:	96ae                	add	a3,a3,a1
    80000d6e:	87aa                	mv	a5,a0
      *d++ = *s++;
    80000d70:	0585                	addi	a1,a1,1
    80000d72:	0785                	addi	a5,a5,1
    80000d74:	fff5c703          	lbu	a4,-1(a1)
    80000d78:	fee78fa3          	sb	a4,-1(a5)
    while(n-- > 0)
    80000d7c:	fed59ae3          	bne	a1,a3,80000d70 <memmove+0x1a>

  return dst;
}
    80000d80:	6422                	ld	s0,8(sp)
    80000d82:	0141                	addi	sp,sp,16
    80000d84:	8082                	ret
  if(s < d && s + n > d){
    80000d86:	02061713          	slli	a4,a2,0x20
    80000d8a:	9301                	srli	a4,a4,0x20
    80000d8c:	00e587b3          	add	a5,a1,a4
    80000d90:	fcf578e3          	bgeu	a0,a5,80000d60 <memmove+0xa>
    d += n;
    80000d94:	972a                	add	a4,a4,a0
    while(n-- > 0)
    80000d96:	fff6069b          	addiw	a3,a2,-1
    80000d9a:	d27d                	beqz	a2,80000d80 <memmove+0x2a>
    80000d9c:	02069613          	slli	a2,a3,0x20
    80000da0:	9201                	srli	a2,a2,0x20
    80000da2:	fff64613          	not	a2,a2
    80000da6:	963e                	add	a2,a2,a5
      *--d = *--s;
    80000da8:	17fd                	addi	a5,a5,-1
    80000daa:	177d                	addi	a4,a4,-1
    80000dac:	0007c683          	lbu	a3,0(a5)
    80000db0:	00d70023          	sb	a3,0(a4)
    while(n-- > 0)
    80000db4:	fef61ae3          	bne	a2,a5,80000da8 <memmove+0x52>
    80000db8:	b7e1                	j	80000d80 <memmove+0x2a>

0000000080000dba <memcpy>:

// memcpy exists to placate GCC.  Use memmove.
void*
memcpy(void *dst, const void *src, uint n)
{
    80000dba:	1141                	addi	sp,sp,-16
    80000dbc:	e406                	sd	ra,8(sp)
    80000dbe:	e022                	sd	s0,0(sp)
    80000dc0:	0800                	addi	s0,sp,16
  return memmove(dst, src, n);
    80000dc2:	00000097          	auipc	ra,0x0
    80000dc6:	f94080e7          	jalr	-108(ra) # 80000d56 <memmove>
}
    80000dca:	60a2                	ld	ra,8(sp)
    80000dcc:	6402                	ld	s0,0(sp)
    80000dce:	0141                	addi	sp,sp,16
    80000dd0:	8082                	ret

0000000080000dd2 <strncmp>:

int
strncmp(const char *p, const char *q, uint n)
{
    80000dd2:	1141                	addi	sp,sp,-16
    80000dd4:	e422                	sd	s0,8(sp)
    80000dd6:	0800                	addi	s0,sp,16
  while(n > 0 && *p && *p == *q)
    80000dd8:	ce11                	beqz	a2,80000df4 <strncmp+0x22>
    80000dda:	00054783          	lbu	a5,0(a0)
    80000dde:	cf89                	beqz	a5,80000df8 <strncmp+0x26>
    80000de0:	0005c703          	lbu	a4,0(a1)
    80000de4:	00f71a63          	bne	a4,a5,80000df8 <strncmp+0x26>
    n--, p++, q++;
    80000de8:	367d                	addiw	a2,a2,-1
    80000dea:	0505                	addi	a0,a0,1
    80000dec:	0585                	addi	a1,a1,1
  while(n > 0 && *p && *p == *q)
    80000dee:	f675                	bnez	a2,80000dda <strncmp+0x8>
  if(n == 0)
    return 0;
    80000df0:	4501                	li	a0,0
    80000df2:	a809                	j	80000e04 <strncmp+0x32>
    80000df4:	4501                	li	a0,0
    80000df6:	a039                	j	80000e04 <strncmp+0x32>
  if(n == 0)
    80000df8:	ca09                	beqz	a2,80000e0a <strncmp+0x38>
  return (uchar)*p - (uchar)*q;
    80000dfa:	00054503          	lbu	a0,0(a0)
    80000dfe:	0005c783          	lbu	a5,0(a1)
    80000e02:	9d1d                	subw	a0,a0,a5
}
    80000e04:	6422                	ld	s0,8(sp)
    80000e06:	0141                	addi	sp,sp,16
    80000e08:	8082                	ret
    return 0;
    80000e0a:	4501                	li	a0,0
    80000e0c:	bfe5                	j	80000e04 <strncmp+0x32>

0000000080000e0e <strncpy>:

char*
strncpy(char *s, const char *t, int n)
{
    80000e0e:	1141                	addi	sp,sp,-16
    80000e10:	e422                	sd	s0,8(sp)
    80000e12:	0800                	addi	s0,sp,16
  char *os;

  os = s;
  while(n-- > 0 && (*s++ = *t++) != 0)
    80000e14:	872a                	mv	a4,a0
    80000e16:	8832                	mv	a6,a2
    80000e18:	367d                	addiw	a2,a2,-1
    80000e1a:	01005963          	blez	a6,80000e2c <strncpy+0x1e>
    80000e1e:	0705                	addi	a4,a4,1
    80000e20:	0005c783          	lbu	a5,0(a1)
    80000e24:	fef70fa3          	sb	a5,-1(a4)
    80000e28:	0585                	addi	a1,a1,1
    80000e2a:	f7f5                	bnez	a5,80000e16 <strncpy+0x8>
    ;
  while(n-- > 0)
    80000e2c:	86ba                	mv	a3,a4
    80000e2e:	00c05c63          	blez	a2,80000e46 <strncpy+0x38>
    *s++ = 0;
    80000e32:	0685                	addi	a3,a3,1
    80000e34:	fe068fa3          	sb	zero,-1(a3)
  while(n-- > 0)
    80000e38:	fff6c793          	not	a5,a3
    80000e3c:	9fb9                	addw	a5,a5,a4
    80000e3e:	010787bb          	addw	a5,a5,a6
    80000e42:	fef048e3          	bgtz	a5,80000e32 <strncpy+0x24>
  return os;
}
    80000e46:	6422                	ld	s0,8(sp)
    80000e48:	0141                	addi	sp,sp,16
    80000e4a:	8082                	ret

0000000080000e4c <safestrcpy>:

// Like strncpy but guaranteed to NUL-terminate.
char*
safestrcpy(char *s, const char *t, int n)
{
    80000e4c:	1141                	addi	sp,sp,-16
    80000e4e:	e422                	sd	s0,8(sp)
    80000e50:	0800                	addi	s0,sp,16
  char *os;

  os = s;
  if(n <= 0)
    80000e52:	02c05363          	blez	a2,80000e78 <safestrcpy+0x2c>
    80000e56:	fff6069b          	addiw	a3,a2,-1
    80000e5a:	1682                	slli	a3,a3,0x20
    80000e5c:	9281                	srli	a3,a3,0x20
    80000e5e:	96ae                	add	a3,a3,a1
    80000e60:	87aa                	mv	a5,a0
    return os;
  while(--n > 0 && (*s++ = *t++) != 0)
    80000e62:	00d58963          	beq	a1,a3,80000e74 <safestrcpy+0x28>
    80000e66:	0585                	addi	a1,a1,1
    80000e68:	0785                	addi	a5,a5,1
    80000e6a:	fff5c703          	lbu	a4,-1(a1)
    80000e6e:	fee78fa3          	sb	a4,-1(a5)
    80000e72:	fb65                	bnez	a4,80000e62 <safestrcpy+0x16>
    ;
  *s = 0;
    80000e74:	00078023          	sb	zero,0(a5)
  return os;
}
    80000e78:	6422                	ld	s0,8(sp)
    80000e7a:	0141                	addi	sp,sp,16
    80000e7c:	8082                	ret

0000000080000e7e <strlen>:

int
strlen(const char *s)
{
    80000e7e:	1141                	addi	sp,sp,-16
    80000e80:	e422                	sd	s0,8(sp)
    80000e82:	0800                	addi	s0,sp,16
  int n;

  for(n = 0; s[n]; n++)
    80000e84:	00054783          	lbu	a5,0(a0)
    80000e88:	cf91                	beqz	a5,80000ea4 <strlen+0x26>
    80000e8a:	0505                	addi	a0,a0,1
    80000e8c:	87aa                	mv	a5,a0
    80000e8e:	4685                	li	a3,1
    80000e90:	9e89                	subw	a3,a3,a0
    80000e92:	00f6853b          	addw	a0,a3,a5
    80000e96:	0785                	addi	a5,a5,1
    80000e98:	fff7c703          	lbu	a4,-1(a5)
    80000e9c:	fb7d                	bnez	a4,80000e92 <strlen+0x14>
    ;
  return n;
}
    80000e9e:	6422                	ld	s0,8(sp)
    80000ea0:	0141                	addi	sp,sp,16
    80000ea2:	8082                	ret
  for(n = 0; s[n]; n++)
    80000ea4:	4501                	li	a0,0
    80000ea6:	bfe5                	j	80000e9e <strlen+0x20>

0000000080000ea8 <main>:
volatile static int started = 0;

// start() jumps here in supervisor mode on all CPUs.
void
main()
{
    80000ea8:	1141                	addi	sp,sp,-16
    80000eaa:	e406                	sd	ra,8(sp)
    80000eac:	e022                	sd	s0,0(sp)
    80000eae:	0800                	addi	s0,sp,16
  if(cpuid() == 0){
    80000eb0:	00001097          	auipc	ra,0x1
    80000eb4:	b58080e7          	jalr	-1192(ra) # 80001a08 <cpuid>
#endif    
    userinit();      // first user process
    __sync_synchronize();
    started = 1;
  } else {
    while(started == 0)
    80000eb8:	00008717          	auipc	a4,0x8
    80000ebc:	15470713          	addi	a4,a4,340 # 8000900c <started>
  if(cpuid() == 0){
    80000ec0:	c139                	beqz	a0,80000f06 <main+0x5e>
    while(started == 0)
    80000ec2:	431c                	lw	a5,0(a4)
    80000ec4:	2781                	sext.w	a5,a5
    80000ec6:	dff5                	beqz	a5,80000ec2 <main+0x1a>
      ;
    __sync_synchronize();
    80000ec8:	0ff0000f          	fence
    printf("hart %d starting\n", cpuid());
    80000ecc:	00001097          	auipc	ra,0x1
    80000ed0:	b3c080e7          	jalr	-1220(ra) # 80001a08 <cpuid>
    80000ed4:	85aa                	mv	a1,a0
    80000ed6:	00007517          	auipc	a0,0x7
    80000eda:	1d250513          	addi	a0,a0,466 # 800080a8 <digits+0x78>
    80000ede:	fffff097          	auipc	ra,0xfffff
    80000ee2:	6ae080e7          	jalr	1710(ra) # 8000058c <printf>
    kvminithart();    // turn on paging
    80000ee6:	00000097          	auipc	ra,0x0
    80000eea:	0e0080e7          	jalr	224(ra) # 80000fc6 <kvminithart>
    trapinithart();   // install kernel trap vector
    80000eee:	00002097          	auipc	ra,0x2
    80000ef2:	936080e7          	jalr	-1738(ra) # 80002824 <trapinithart>
    plicinithart();   // ask PLIC for device interrupts
    80000ef6:	00005097          	auipc	ra,0x5
    80000efa:	f7a080e7          	jalr	-134(ra) # 80005e70 <plicinithart>
  }

  scheduler();        
    80000efe:	00001097          	auipc	ra,0x1
    80000f02:	0ec080e7          	jalr	236(ra) # 80001fea <scheduler>
    consoleinit();
    80000f06:	fffff097          	auipc	ra,0xfffff
    80000f0a:	54e080e7          	jalr	1358(ra) # 80000454 <consoleinit>
    statsinit();
    80000f0e:	00005097          	auipc	ra,0x5
    80000f12:	750080e7          	jalr	1872(ra) # 8000665e <statsinit>
    printfinit();
    80000f16:	00000097          	auipc	ra,0x0
    80000f1a:	856080e7          	jalr	-1962(ra) # 8000076c <printfinit>
    printf("\n");
    80000f1e:	00007517          	auipc	a0,0x7
    80000f22:	19a50513          	addi	a0,a0,410 # 800080b8 <digits+0x88>
    80000f26:	fffff097          	auipc	ra,0xfffff
    80000f2a:	666080e7          	jalr	1638(ra) # 8000058c <printf>
    printf("xv6 kernel is booting\n");
    80000f2e:	00007517          	auipc	a0,0x7
    80000f32:	16250513          	addi	a0,a0,354 # 80008090 <digits+0x60>
    80000f36:	fffff097          	auipc	ra,0xfffff
    80000f3a:	656080e7          	jalr	1622(ra) # 8000058c <printf>
    printf("\n");
    80000f3e:	00007517          	auipc	a0,0x7
    80000f42:	17a50513          	addi	a0,a0,378 # 800080b8 <digits+0x88>
    80000f46:	fffff097          	auipc	ra,0xfffff
    80000f4a:	646080e7          	jalr	1606(ra) # 8000058c <printf>
    kinit();         // physical page allocator
    80000f4e:	00000097          	auipc	ra,0x0
    80000f52:	b84080e7          	jalr	-1148(ra) # 80000ad2 <kinit>
    kvminit();       // create kernel page table
    80000f56:	00000097          	auipc	ra,0x0
    80000f5a:	37a080e7          	jalr	890(ra) # 800012d0 <kvminit>
    kvminithart();   // turn on paging
    80000f5e:	00000097          	auipc	ra,0x0
    80000f62:	068080e7          	jalr	104(ra) # 80000fc6 <kvminithart>
    procinit();      // process table
    80000f66:	00001097          	auipc	ra,0x1
    80000f6a:	a3a080e7          	jalr	-1478(ra) # 800019a0 <procinit>
    trapinit();      // trap vectors
    80000f6e:	00002097          	auipc	ra,0x2
    80000f72:	88e080e7          	jalr	-1906(ra) # 800027fc <trapinit>
    trapinithart();  // install kernel trap vector
    80000f76:	00002097          	auipc	ra,0x2
    80000f7a:	8ae080e7          	jalr	-1874(ra) # 80002824 <trapinithart>
    plicinit();      // set up interrupt controller
    80000f7e:	00005097          	auipc	ra,0x5
    80000f82:	edc080e7          	jalr	-292(ra) # 80005e5a <plicinit>
    plicinithart();  // ask PLIC for device interrupts
    80000f86:	00005097          	auipc	ra,0x5
    80000f8a:	eea080e7          	jalr	-278(ra) # 80005e70 <plicinithart>
    binit();         // buffer cache
    80000f8e:	00002097          	auipc	ra,0x2
    80000f92:	034080e7          	jalr	52(ra) # 80002fc2 <binit>
    iinit();         // inode cache
    80000f96:	00002097          	auipc	ra,0x2
    80000f9a:	6c4080e7          	jalr	1732(ra) # 8000365a <iinit>
    fileinit();      // file table
    80000f9e:	00003097          	auipc	ra,0x3
    80000fa2:	65e080e7          	jalr	1630(ra) # 800045fc <fileinit>
    virtio_disk_init(); // emulated hard disk
    80000fa6:	00005097          	auipc	ra,0x5
    80000faa:	fd2080e7          	jalr	-46(ra) # 80005f78 <virtio_disk_init>
    userinit();      // first user process
    80000fae:	00001097          	auipc	ra,0x1
    80000fb2:	e12080e7          	jalr	-494(ra) # 80001dc0 <userinit>
    __sync_synchronize();
    80000fb6:	0ff0000f          	fence
    started = 1;
    80000fba:	4785                	li	a5,1
    80000fbc:	00008717          	auipc	a4,0x8
    80000fc0:	04f72823          	sw	a5,80(a4) # 8000900c <started>
    80000fc4:	bf2d                	j	80000efe <main+0x56>

0000000080000fc6 <kvminithart>:

// Switch h/w page table register to the kernel's page table,
// and enable paging.
void
kvminithart()
{
    80000fc6:	1141                	addi	sp,sp,-16
    80000fc8:	e422                	sd	s0,8(sp)
    80000fca:	0800                	addi	s0,sp,16
  w_satp(MAKE_SATP(kernel_pagetable));
    80000fcc:	00008797          	auipc	a5,0x8
    80000fd0:	0447b783          	ld	a5,68(a5) # 80009010 <kernel_pagetable>
    80000fd4:	83b1                	srli	a5,a5,0xc
    80000fd6:	577d                	li	a4,-1
    80000fd8:	177e                	slli	a4,a4,0x3f
    80000fda:	8fd9                	or	a5,a5,a4
  asm volatile("csrw satp, %0" : : "r" (x));
    80000fdc:	18079073          	csrw	satp,a5
// flush the TLB.
static inline void
sfence_vma()
{
  // the zero, zero means flush all TLB entries.
  asm volatile("sfence.vma zero, zero");
    80000fe0:	12000073          	sfence.vma
  sfence_vma();
}
    80000fe4:	6422                	ld	s0,8(sp)
    80000fe6:	0141                	addi	sp,sp,16
    80000fe8:	8082                	ret

0000000080000fea <walk>:
//   21..29 -- 9 bits of level-1 index.
//   12..20 -- 9 bits of level-0 index.
//    0..11 -- 12 bits of byte offset within the page.
pte_t *
walk(pagetable_t pagetable, uint64 va, int alloc)
{
    80000fea:	7139                	addi	sp,sp,-64
    80000fec:	fc06                	sd	ra,56(sp)
    80000fee:	f822                	sd	s0,48(sp)
    80000ff0:	f426                	sd	s1,40(sp)
    80000ff2:	f04a                	sd	s2,32(sp)
    80000ff4:	ec4e                	sd	s3,24(sp)
    80000ff6:	e852                	sd	s4,16(sp)
    80000ff8:	e456                	sd	s5,8(sp)
    80000ffa:	e05a                	sd	s6,0(sp)
    80000ffc:	0080                	addi	s0,sp,64
    80000ffe:	84aa                	mv	s1,a0
    80001000:	89ae                	mv	s3,a1
    80001002:	8ab2                	mv	s5,a2
  if(va >= MAXVA)
    80001004:	57fd                	li	a5,-1
    80001006:	83e9                	srli	a5,a5,0x1a
    80001008:	4a79                	li	s4,30
    panic("walk");

  for(int level = 2; level > 0; level--) {
    8000100a:	4b31                	li	s6,12
  if(va >= MAXVA)
    8000100c:	04b7f263          	bgeu	a5,a1,80001050 <walk+0x66>
    panic("walk");
    80001010:	00007517          	auipc	a0,0x7
    80001014:	0b050513          	addi	a0,a0,176 # 800080c0 <digits+0x90>
    80001018:	fffff097          	auipc	ra,0xfffff
    8000101c:	52a080e7          	jalr	1322(ra) # 80000542 <panic>
    pte_t *pte = &pagetable[PX(level, va)];
    if(*pte & PTE_V) {
      pagetable = (pagetable_t)PTE2PA(*pte);
    } else {
      if(!alloc || (pagetable = (pde_t*)kalloc()) == 0)
    80001020:	060a8663          	beqz	s5,8000108c <walk+0xa2>
    80001024:	00000097          	auipc	ra,0x0
    80001028:	aea080e7          	jalr	-1302(ra) # 80000b0e <kalloc>
    8000102c:	84aa                	mv	s1,a0
    8000102e:	c529                	beqz	a0,80001078 <walk+0x8e>
        return 0;
      memset(pagetable, 0, PGSIZE);
    80001030:	6605                	lui	a2,0x1
    80001032:	4581                	li	a1,0
    80001034:	00000097          	auipc	ra,0x0
    80001038:	cc6080e7          	jalr	-826(ra) # 80000cfa <memset>
      *pte = PA2PTE(pagetable) | PTE_V;
    8000103c:	00c4d793          	srli	a5,s1,0xc
    80001040:	07aa                	slli	a5,a5,0xa
    80001042:	0017e793          	ori	a5,a5,1
    80001046:	00f93023          	sd	a5,0(s2)
  for(int level = 2; level > 0; level--) {
    8000104a:	3a5d                	addiw	s4,s4,-9
    8000104c:	036a0063          	beq	s4,s6,8000106c <walk+0x82>
    pte_t *pte = &pagetable[PX(level, va)];
    80001050:	0149d933          	srl	s2,s3,s4
    80001054:	1ff97913          	andi	s2,s2,511
    80001058:	090e                	slli	s2,s2,0x3
    8000105a:	9926                	add	s2,s2,s1
    if(*pte & PTE_V) {
    8000105c:	00093483          	ld	s1,0(s2)
    80001060:	0014f793          	andi	a5,s1,1
    80001064:	dfd5                	beqz	a5,80001020 <walk+0x36>
      pagetable = (pagetable_t)PTE2PA(*pte);
    80001066:	80a9                	srli	s1,s1,0xa
    80001068:	04b2                	slli	s1,s1,0xc
    8000106a:	b7c5                	j	8000104a <walk+0x60>
    }
  }
  return &pagetable[PX(0, va)];
    8000106c:	00c9d513          	srli	a0,s3,0xc
    80001070:	1ff57513          	andi	a0,a0,511
    80001074:	050e                	slli	a0,a0,0x3
    80001076:	9526                	add	a0,a0,s1
}
    80001078:	70e2                	ld	ra,56(sp)
    8000107a:	7442                	ld	s0,48(sp)
    8000107c:	74a2                	ld	s1,40(sp)
    8000107e:	7902                	ld	s2,32(sp)
    80001080:	69e2                	ld	s3,24(sp)
    80001082:	6a42                	ld	s4,16(sp)
    80001084:	6aa2                	ld	s5,8(sp)
    80001086:	6b02                	ld	s6,0(sp)
    80001088:	6121                	addi	sp,sp,64
    8000108a:	8082                	ret
        return 0;
    8000108c:	4501                	li	a0,0
    8000108e:	b7ed                	j	80001078 <walk+0x8e>

0000000080001090 <walkaddr>:
walkaddr(pagetable_t pagetable, uint64 va)
{
  pte_t *pte;
  uint64 pa;

  if(va >= MAXVA)
    80001090:	57fd                	li	a5,-1
    80001092:	83e9                	srli	a5,a5,0x1a
    80001094:	00b7f463          	bgeu	a5,a1,8000109c <walkaddr+0xc>
    return 0;
    80001098:	4501                	li	a0,0
    return 0;
  if((*pte & PTE_U) == 0)
    return 0;
  pa = PTE2PA(*pte);
  return pa;
}
    8000109a:	8082                	ret
{
    8000109c:	1141                	addi	sp,sp,-16
    8000109e:	e406                	sd	ra,8(sp)
    800010a0:	e022                	sd	s0,0(sp)
    800010a2:	0800                	addi	s0,sp,16
  pte = walk(pagetable, va, 0);
    800010a4:	4601                	li	a2,0
    800010a6:	00000097          	auipc	ra,0x0
    800010aa:	f44080e7          	jalr	-188(ra) # 80000fea <walk>
  if(pte == 0)
    800010ae:	c105                	beqz	a0,800010ce <walkaddr+0x3e>
  if((*pte & PTE_V) == 0)
    800010b0:	611c                	ld	a5,0(a0)
  if((*pte & PTE_U) == 0)
    800010b2:	0117f693          	andi	a3,a5,17
    800010b6:	4745                	li	a4,17
    return 0;
    800010b8:	4501                	li	a0,0
  if((*pte & PTE_U) == 0)
    800010ba:	00e68663          	beq	a3,a4,800010c6 <walkaddr+0x36>
}
    800010be:	60a2                	ld	ra,8(sp)
    800010c0:	6402                	ld	s0,0(sp)
    800010c2:	0141                	addi	sp,sp,16
    800010c4:	8082                	ret
  pa = PTE2PA(*pte);
    800010c6:	00a7d513          	srli	a0,a5,0xa
    800010ca:	0532                	slli	a0,a0,0xc
  return pa;
    800010cc:	bfcd                	j	800010be <walkaddr+0x2e>
    return 0;
    800010ce:	4501                	li	a0,0
    800010d0:	b7fd                	j	800010be <walkaddr+0x2e>

00000000800010d2 <kvmpa>:
}

// kvmpa  kernelpgtbl
uint64
kvmpa(pagetable_t pgtbl, uint64 va)
{
    800010d2:	1101                	addi	sp,sp,-32
    800010d4:	ec06                	sd	ra,24(sp)
    800010d6:	e822                	sd	s0,16(sp)
    800010d8:	e426                	sd	s1,8(sp)
    800010da:	1000                	addi	s0,sp,32
  uint64 off = va % PGSIZE;
    800010dc:	03459793          	slli	a5,a1,0x34
    800010e0:	0347d493          	srli	s1,a5,0x34
  pte_t *pte;
  uint64 pa;

  pte = walk(pgtbl, va, 0);
    800010e4:	4601                	li	a2,0
    800010e6:	00000097          	auipc	ra,0x0
    800010ea:	f04080e7          	jalr	-252(ra) # 80000fea <walk>
  if(pte == 0)
    800010ee:	cd09                	beqz	a0,80001108 <kvmpa+0x36>
    panic("kvmpa");
  if((*pte & PTE_V) == 0)
    800010f0:	6108                	ld	a0,0(a0)
    800010f2:	00157793          	andi	a5,a0,1
    800010f6:	c38d                	beqz	a5,80001118 <kvmpa+0x46>
    panic("kvmpa");
  pa = PTE2PA(*pte);
    800010f8:	8129                	srli	a0,a0,0xa
    800010fa:	0532                	slli	a0,a0,0xc
  return pa+off;
}
    800010fc:	9526                	add	a0,a0,s1
    800010fe:	60e2                	ld	ra,24(sp)
    80001100:	6442                	ld	s0,16(sp)
    80001102:	64a2                	ld	s1,8(sp)
    80001104:	6105                	addi	sp,sp,32
    80001106:	8082                	ret
    panic("kvmpa");
    80001108:	00007517          	auipc	a0,0x7
    8000110c:	fc050513          	addi	a0,a0,-64 # 800080c8 <digits+0x98>
    80001110:	fffff097          	auipc	ra,0xfffff
    80001114:	432080e7          	jalr	1074(ra) # 80000542 <panic>
    panic("kvmpa");
    80001118:	00007517          	auipc	a0,0x7
    8000111c:	fb050513          	addi	a0,a0,-80 # 800080c8 <digits+0x98>
    80001120:	fffff097          	auipc	ra,0xfffff
    80001124:	422080e7          	jalr	1058(ra) # 80000542 <panic>

0000000080001128 <mappages>:
// physical addresses starting at pa. va and size might not
// be page-aligned. Returns 0 on success, -1 if walk() couldn't
// allocate a needed page-table page.
int
mappages(pagetable_t pagetable, uint64 va, uint64 size, uint64 pa, int perm)
{
    80001128:	715d                	addi	sp,sp,-80
    8000112a:	e486                	sd	ra,72(sp)
    8000112c:	e0a2                	sd	s0,64(sp)
    8000112e:	fc26                	sd	s1,56(sp)
    80001130:	f84a                	sd	s2,48(sp)
    80001132:	f44e                	sd	s3,40(sp)
    80001134:	f052                	sd	s4,32(sp)
    80001136:	ec56                	sd	s5,24(sp)
    80001138:	e85a                	sd	s6,16(sp)
    8000113a:	e45e                	sd	s7,8(sp)
    8000113c:	0880                	addi	s0,sp,80
    8000113e:	8aaa                	mv	s5,a0
    80001140:	8b3a                	mv	s6,a4
  uint64 a, last;
  pte_t *pte;

  a = PGROUNDDOWN(va);
    80001142:	777d                	lui	a4,0xfffff
    80001144:	00e5f7b3          	and	a5,a1,a4
  last = PGROUNDDOWN(va + size - 1);
    80001148:	167d                	addi	a2,a2,-1
    8000114a:	00b609b3          	add	s3,a2,a1
    8000114e:	00e9f9b3          	and	s3,s3,a4
  a = PGROUNDDOWN(va);
    80001152:	893e                	mv	s2,a5
    80001154:	40f68a33          	sub	s4,a3,a5
    if(*pte & PTE_V)
      panic("remap");
    *pte = PA2PTE(pa) | perm | PTE_V;
    if(a == last)
      break;
    a += PGSIZE;
    80001158:	6b85                	lui	s7,0x1
    8000115a:	012a04b3          	add	s1,s4,s2
    if((pte = walk(pagetable, a, 1)) == 0)
    8000115e:	4605                	li	a2,1
    80001160:	85ca                	mv	a1,s2
    80001162:	8556                	mv	a0,s5
    80001164:	00000097          	auipc	ra,0x0
    80001168:	e86080e7          	jalr	-378(ra) # 80000fea <walk>
    8000116c:	c51d                	beqz	a0,8000119a <mappages+0x72>
    if(*pte & PTE_V)
    8000116e:	611c                	ld	a5,0(a0)
    80001170:	8b85                	andi	a5,a5,1
    80001172:	ef81                	bnez	a5,8000118a <mappages+0x62>
    *pte = PA2PTE(pa) | perm | PTE_V;
    80001174:	80b1                	srli	s1,s1,0xc
    80001176:	04aa                	slli	s1,s1,0xa
    80001178:	0164e4b3          	or	s1,s1,s6
    8000117c:	0014e493          	ori	s1,s1,1
    80001180:	e104                	sd	s1,0(a0)
    if(a == last)
    80001182:	03390863          	beq	s2,s3,800011b2 <mappages+0x8a>
    a += PGSIZE;
    80001186:	995e                	add	s2,s2,s7
    if((pte = walk(pagetable, a, 1)) == 0)
    80001188:	bfc9                	j	8000115a <mappages+0x32>
      panic("remap");
    8000118a:	00007517          	auipc	a0,0x7
    8000118e:	f4650513          	addi	a0,a0,-186 # 800080d0 <digits+0xa0>
    80001192:	fffff097          	auipc	ra,0xfffff
    80001196:	3b0080e7          	jalr	944(ra) # 80000542 <panic>
      return -1;
    8000119a:	557d                	li	a0,-1
    pa += PGSIZE;
  }
  return 0;
}
    8000119c:	60a6                	ld	ra,72(sp)
    8000119e:	6406                	ld	s0,64(sp)
    800011a0:	74e2                	ld	s1,56(sp)
    800011a2:	7942                	ld	s2,48(sp)
    800011a4:	79a2                	ld	s3,40(sp)
    800011a6:	7a02                	ld	s4,32(sp)
    800011a8:	6ae2                	ld	s5,24(sp)
    800011aa:	6b42                	ld	s6,16(sp)
    800011ac:	6ba2                	ld	s7,8(sp)
    800011ae:	6161                	addi	sp,sp,80
    800011b0:	8082                	ret
  return 0;
    800011b2:	4501                	li	a0,0
    800011b4:	b7e5                	j	8000119c <mappages+0x74>

00000000800011b6 <kvmmap>:
{
    800011b6:	1141                	addi	sp,sp,-16
    800011b8:	e406                	sd	ra,8(sp)
    800011ba:	e022                	sd	s0,0(sp)
    800011bc:	0800                	addi	s0,sp,16
    800011be:	87b6                	mv	a5,a3
  if(mappages(pgtbl, va, sz, pa, perm) != 0)
    800011c0:	86b2                	mv	a3,a2
    800011c2:	863e                	mv	a2,a5
    800011c4:	00000097          	auipc	ra,0x0
    800011c8:	f64080e7          	jalr	-156(ra) # 80001128 <mappages>
    800011cc:	e509                	bnez	a0,800011d6 <kvmmap+0x20>
}
    800011ce:	60a2                	ld	ra,8(sp)
    800011d0:	6402                	ld	s0,0(sp)
    800011d2:	0141                	addi	sp,sp,16
    800011d4:	8082                	ret
    panic("kvmmap");
    800011d6:	00007517          	auipc	a0,0x7
    800011da:	f0250513          	addi	a0,a0,-254 # 800080d8 <digits+0xa8>
    800011de:	fffff097          	auipc	ra,0xfffff
    800011e2:	364080e7          	jalr	868(ra) # 80000542 <panic>

00000000800011e6 <kvm_map_pagetable>:
void kvm_map_pagetable(pagetable_t pgtbl) {
    800011e6:	1101                	addi	sp,sp,-32
    800011e8:	ec06                	sd	ra,24(sp)
    800011ea:	e822                	sd	s0,16(sp)
    800011ec:	e426                	sd	s1,8(sp)
    800011ee:	e04a                	sd	s2,0(sp)
    800011f0:	1000                	addi	s0,sp,32
    800011f2:	84aa                	mv	s1,a0
  kvmmap(pgtbl, UART0, UART0, PGSIZE, PTE_R | PTE_W);
    800011f4:	4719                	li	a4,6
    800011f6:	6685                	lui	a3,0x1
    800011f8:	10000637          	lui	a2,0x10000
    800011fc:	100005b7          	lui	a1,0x10000
    80001200:	00000097          	auipc	ra,0x0
    80001204:	fb6080e7          	jalr	-74(ra) # 800011b6 <kvmmap>
  kvmmap(pgtbl, VIRTIO0, VIRTIO0, PGSIZE, PTE_R | PTE_W);
    80001208:	4719                	li	a4,6
    8000120a:	6685                	lui	a3,0x1
    8000120c:	10001637          	lui	a2,0x10001
    80001210:	100015b7          	lui	a1,0x10001
    80001214:	8526                	mv	a0,s1
    80001216:	00000097          	auipc	ra,0x0
    8000121a:	fa0080e7          	jalr	-96(ra) # 800011b6 <kvmmap>
  kvmmap(pgtbl, PLIC, PLIC, 0x400000, PTE_R | PTE_W);
    8000121e:	4719                	li	a4,6
    80001220:	004006b7          	lui	a3,0x400
    80001224:	0c000637          	lui	a2,0xc000
    80001228:	0c0005b7          	lui	a1,0xc000
    8000122c:	8526                	mv	a0,s1
    8000122e:	00000097          	auipc	ra,0x0
    80001232:	f88080e7          	jalr	-120(ra) # 800011b6 <kvmmap>
  kvmmap(pgtbl, KERNBASE, KERNBASE, (uint64)etext-KERNBASE, PTE_R | PTE_X);
    80001236:	00007917          	auipc	s2,0x7
    8000123a:	dca90913          	addi	s2,s2,-566 # 80008000 <etext>
    8000123e:	4729                	li	a4,10
    80001240:	80007697          	auipc	a3,0x80007
    80001244:	dc068693          	addi	a3,a3,-576 # 8000 <_entry-0x7fff8000>
    80001248:	4605                	li	a2,1
    8000124a:	067e                	slli	a2,a2,0x1f
    8000124c:	85b2                	mv	a1,a2
    8000124e:	8526                	mv	a0,s1
    80001250:	00000097          	auipc	ra,0x0
    80001254:	f66080e7          	jalr	-154(ra) # 800011b6 <kvmmap>
  kvmmap(pgtbl, (uint64)etext, (uint64)etext, PHYSTOP-(uint64)etext, PTE_R | PTE_W);
    80001258:	4719                	li	a4,6
    8000125a:	46c5                	li	a3,17
    8000125c:	06ee                	slli	a3,a3,0x1b
    8000125e:	412686b3          	sub	a3,a3,s2
    80001262:	864a                	mv	a2,s2
    80001264:	85ca                	mv	a1,s2
    80001266:	8526                	mv	a0,s1
    80001268:	00000097          	auipc	ra,0x0
    8000126c:	f4e080e7          	jalr	-178(ra) # 800011b6 <kvmmap>
  kvmmap(pgtbl, TRAMPOLINE, (uint64)trampoline, PGSIZE, PTE_R | PTE_X);
    80001270:	4729                	li	a4,10
    80001272:	6685                	lui	a3,0x1
    80001274:	00006617          	auipc	a2,0x6
    80001278:	d8c60613          	addi	a2,a2,-628 # 80007000 <_trampoline>
    8000127c:	040005b7          	lui	a1,0x4000
    80001280:	15fd                	addi	a1,a1,-1
    80001282:	05b2                	slli	a1,a1,0xc
    80001284:	8526                	mv	a0,s1
    80001286:	00000097          	auipc	ra,0x0
    8000128a:	f30080e7          	jalr	-208(ra) # 800011b6 <kvmmap>
}
    8000128e:	60e2                	ld	ra,24(sp)
    80001290:	6442                	ld	s0,16(sp)
    80001292:	64a2                	ld	s1,8(sp)
    80001294:	6902                	ld	s2,0(sp)
    80001296:	6105                	addi	sp,sp,32
    80001298:	8082                	ret

000000008000129a <kvminit_newpgtbl>:
{
    8000129a:	1101                	addi	sp,sp,-32
    8000129c:	ec06                	sd	ra,24(sp)
    8000129e:	e822                	sd	s0,16(sp)
    800012a0:	e426                	sd	s1,8(sp)
    800012a2:	1000                	addi	s0,sp,32
  pagetable_t pgtbl = (pagetable_t) kalloc();
    800012a4:	00000097          	auipc	ra,0x0
    800012a8:	86a080e7          	jalr	-1942(ra) # 80000b0e <kalloc>
    800012ac:	84aa                	mv	s1,a0
  memset(pgtbl, 0, PGSIZE);
    800012ae:	6605                	lui	a2,0x1
    800012b0:	4581                	li	a1,0
    800012b2:	00000097          	auipc	ra,0x0
    800012b6:	a48080e7          	jalr	-1464(ra) # 80000cfa <memset>
  kvm_map_pagetable(pgtbl);
    800012ba:	8526                	mv	a0,s1
    800012bc:	00000097          	auipc	ra,0x0
    800012c0:	f2a080e7          	jalr	-214(ra) # 800011e6 <kvm_map_pagetable>
}
    800012c4:	8526                	mv	a0,s1
    800012c6:	60e2                	ld	ra,24(sp)
    800012c8:	6442                	ld	s0,16(sp)
    800012ca:	64a2                	ld	s1,8(sp)
    800012cc:	6105                	addi	sp,sp,32
    800012ce:	8082                	ret

00000000800012d0 <kvminit>:
{
    800012d0:	1141                	addi	sp,sp,-16
    800012d2:	e406                	sd	ra,8(sp)
    800012d4:	e022                	sd	s0,0(sp)
    800012d6:	0800                	addi	s0,sp,16
  kernel_pagetable = kvminit_newpgtbl(); //  boot 
    800012d8:	00000097          	auipc	ra,0x0
    800012dc:	fc2080e7          	jalr	-62(ra) # 8000129a <kvminit_newpgtbl>
    800012e0:	00008797          	auipc	a5,0x8
    800012e4:	d2a7b823          	sd	a0,-720(a5) # 80009010 <kernel_pagetable>
  kvmmap(kernel_pagetable, CLINT, CLINT, 0x10000, PTE_R | PTE_W);
    800012e8:	4719                	li	a4,6
    800012ea:	66c1                	lui	a3,0x10
    800012ec:	02000637          	lui	a2,0x2000
    800012f0:	020005b7          	lui	a1,0x2000
    800012f4:	00000097          	auipc	ra,0x0
    800012f8:	ec2080e7          	jalr	-318(ra) # 800011b6 <kvmmap>
}
    800012fc:	60a2                	ld	ra,8(sp)
    800012fe:	6402                	ld	s0,0(sp)
    80001300:	0141                	addi	sp,sp,16
    80001302:	8082                	ret

0000000080001304 <uvmunmap>:
// Remove npages of mappings starting from va. va must be
// page-aligned. The mappings must exist.
// Optionally free the physical memory.
void
uvmunmap(pagetable_t pagetable, uint64 va, uint64 npages, int do_free)
{
    80001304:	715d                	addi	sp,sp,-80
    80001306:	e486                	sd	ra,72(sp)
    80001308:	e0a2                	sd	s0,64(sp)
    8000130a:	fc26                	sd	s1,56(sp)
    8000130c:	f84a                	sd	s2,48(sp)
    8000130e:	f44e                	sd	s3,40(sp)
    80001310:	f052                	sd	s4,32(sp)
    80001312:	ec56                	sd	s5,24(sp)
    80001314:	e85a                	sd	s6,16(sp)
    80001316:	e45e                	sd	s7,8(sp)
    80001318:	0880                	addi	s0,sp,80
  uint64 a;
  pte_t *pte;

  if((va % PGSIZE) != 0)
    8000131a:	03459793          	slli	a5,a1,0x34
    8000131e:	e795                	bnez	a5,8000134a <uvmunmap+0x46>
    80001320:	8a2a                	mv	s4,a0
    80001322:	892e                	mv	s2,a1
    80001324:	8b36                	mv	s6,a3
    panic("uvmunmap: not aligned");

  for(a = va; a < va + npages*PGSIZE; a += PGSIZE){
    80001326:	0632                	slli	a2,a2,0xc
    80001328:	00b609b3          	add	s3,a2,a1
      continue;
      //panic("uvmunmap: walk");
    if((*pte & PTE_V) == 0)
      continue;
      //panic("uvmunmap: not mapped");
    if(PTE_FLAGS(*pte) == PTE_V)
    8000132c:	4b85                	li	s7,1
  for(a = va; a < va + npages*PGSIZE; a += PGSIZE){
    8000132e:	6a85                	lui	s5,0x1
    80001330:	0535e263          	bltu	a1,s3,80001374 <uvmunmap+0x70>
      uint64 pa = PTE2PA(*pte);
      kfree((void*)pa);
    }
    *pte = 0;
  }
}
    80001334:	60a6                	ld	ra,72(sp)
    80001336:	6406                	ld	s0,64(sp)
    80001338:	74e2                	ld	s1,56(sp)
    8000133a:	7942                	ld	s2,48(sp)
    8000133c:	79a2                	ld	s3,40(sp)
    8000133e:	7a02                	ld	s4,32(sp)
    80001340:	6ae2                	ld	s5,24(sp)
    80001342:	6b42                	ld	s6,16(sp)
    80001344:	6ba2                	ld	s7,8(sp)
    80001346:	6161                	addi	sp,sp,80
    80001348:	8082                	ret
    panic("uvmunmap: not aligned");
    8000134a:	00007517          	auipc	a0,0x7
    8000134e:	d9650513          	addi	a0,a0,-618 # 800080e0 <digits+0xb0>
    80001352:	fffff097          	auipc	ra,0xfffff
    80001356:	1f0080e7          	jalr	496(ra) # 80000542 <panic>
      panic("uvmunmap: not a leaf");
    8000135a:	00007517          	auipc	a0,0x7
    8000135e:	d9e50513          	addi	a0,a0,-610 # 800080f8 <digits+0xc8>
    80001362:	fffff097          	auipc	ra,0xfffff
    80001366:	1e0080e7          	jalr	480(ra) # 80000542 <panic>
    *pte = 0;
    8000136a:	0004b023          	sd	zero,0(s1)
  for(a = va; a < va + npages*PGSIZE; a += PGSIZE){
    8000136e:	9956                	add	s2,s2,s5
    80001370:	fd3972e3          	bgeu	s2,s3,80001334 <uvmunmap+0x30>
    if((pte = walk(pagetable, a, 0)) == 0)
    80001374:	4601                	li	a2,0
    80001376:	85ca                	mv	a1,s2
    80001378:	8552                	mv	a0,s4
    8000137a:	00000097          	auipc	ra,0x0
    8000137e:	c70080e7          	jalr	-912(ra) # 80000fea <walk>
    80001382:	84aa                	mv	s1,a0
    80001384:	d56d                	beqz	a0,8000136e <uvmunmap+0x6a>
    if((*pte & PTE_V) == 0)
    80001386:	611c                	ld	a5,0(a0)
    80001388:	0017f713          	andi	a4,a5,1
    8000138c:	d36d                	beqz	a4,8000136e <uvmunmap+0x6a>
    if(PTE_FLAGS(*pte) == PTE_V)
    8000138e:	3ff7f713          	andi	a4,a5,1023
    80001392:	fd7704e3          	beq	a4,s7,8000135a <uvmunmap+0x56>
    if(do_free){
    80001396:	fc0b0ae3          	beqz	s6,8000136a <uvmunmap+0x66>
      uint64 pa = PTE2PA(*pte);
    8000139a:	83a9                	srli	a5,a5,0xa
      kfree((void*)pa);
    8000139c:	00c79513          	slli	a0,a5,0xc
    800013a0:	fffff097          	auipc	ra,0xfffff
    800013a4:	672080e7          	jalr	1650(ra) # 80000a12 <kfree>
    800013a8:	b7c9                	j	8000136a <uvmunmap+0x66>

00000000800013aa <uvmcreate>:

// create an empty user page table.
// returns 0 if out of memory.
pagetable_t
uvmcreate()
{
    800013aa:	1101                	addi	sp,sp,-32
    800013ac:	ec06                	sd	ra,24(sp)
    800013ae:	e822                	sd	s0,16(sp)
    800013b0:	e426                	sd	s1,8(sp)
    800013b2:	1000                	addi	s0,sp,32
  pagetable_t pagetable;
  pagetable = (pagetable_t) kalloc();
    800013b4:	fffff097          	auipc	ra,0xfffff
    800013b8:	75a080e7          	jalr	1882(ra) # 80000b0e <kalloc>
    800013bc:	84aa                	mv	s1,a0
  if(pagetable == 0)
    800013be:	c519                	beqz	a0,800013cc <uvmcreate+0x22>
    return 0;
  memset(pagetable, 0, PGSIZE);
    800013c0:	6605                	lui	a2,0x1
    800013c2:	4581                	li	a1,0
    800013c4:	00000097          	auipc	ra,0x0
    800013c8:	936080e7          	jalr	-1738(ra) # 80000cfa <memset>
  return pagetable;
}
    800013cc:	8526                	mv	a0,s1
    800013ce:	60e2                	ld	ra,24(sp)
    800013d0:	6442                	ld	s0,16(sp)
    800013d2:	64a2                	ld	s1,8(sp)
    800013d4:	6105                	addi	sp,sp,32
    800013d6:	8082                	ret

00000000800013d8 <uvminit>:
// Load the user initcode into address 0 of pagetable,
// for the very first process.
// sz must be less than a page.
void
uvminit(pagetable_t pagetable, uchar *src, uint sz)
{
    800013d8:	7179                	addi	sp,sp,-48
    800013da:	f406                	sd	ra,40(sp)
    800013dc:	f022                	sd	s0,32(sp)
    800013de:	ec26                	sd	s1,24(sp)
    800013e0:	e84a                	sd	s2,16(sp)
    800013e2:	e44e                	sd	s3,8(sp)
    800013e4:	e052                	sd	s4,0(sp)
    800013e6:	1800                	addi	s0,sp,48
  char *mem;

  if(sz >= PGSIZE)
    800013e8:	6785                	lui	a5,0x1
    800013ea:	04f67863          	bgeu	a2,a5,8000143a <uvminit+0x62>
    800013ee:	8a2a                	mv	s4,a0
    800013f0:	89ae                	mv	s3,a1
    800013f2:	84b2                	mv	s1,a2
    panic("inituvm: more than a page");
  mem = kalloc();
    800013f4:	fffff097          	auipc	ra,0xfffff
    800013f8:	71a080e7          	jalr	1818(ra) # 80000b0e <kalloc>
    800013fc:	892a                	mv	s2,a0
  memset(mem, 0, PGSIZE);
    800013fe:	6605                	lui	a2,0x1
    80001400:	4581                	li	a1,0
    80001402:	00000097          	auipc	ra,0x0
    80001406:	8f8080e7          	jalr	-1800(ra) # 80000cfa <memset>
  mappages(pagetable, 0, PGSIZE, (uint64)mem, PTE_W|PTE_R|PTE_X|PTE_U);
    8000140a:	4779                	li	a4,30
    8000140c:	86ca                	mv	a3,s2
    8000140e:	6605                	lui	a2,0x1
    80001410:	4581                	li	a1,0
    80001412:	8552                	mv	a0,s4
    80001414:	00000097          	auipc	ra,0x0
    80001418:	d14080e7          	jalr	-748(ra) # 80001128 <mappages>
  memmove(mem, src, sz);
    8000141c:	8626                	mv	a2,s1
    8000141e:	85ce                	mv	a1,s3
    80001420:	854a                	mv	a0,s2
    80001422:	00000097          	auipc	ra,0x0
    80001426:	934080e7          	jalr	-1740(ra) # 80000d56 <memmove>
}
    8000142a:	70a2                	ld	ra,40(sp)
    8000142c:	7402                	ld	s0,32(sp)
    8000142e:	64e2                	ld	s1,24(sp)
    80001430:	6942                	ld	s2,16(sp)
    80001432:	69a2                	ld	s3,8(sp)
    80001434:	6a02                	ld	s4,0(sp)
    80001436:	6145                	addi	sp,sp,48
    80001438:	8082                	ret
    panic("inituvm: more than a page");
    8000143a:	00007517          	auipc	a0,0x7
    8000143e:	cd650513          	addi	a0,a0,-810 # 80008110 <digits+0xe0>
    80001442:	fffff097          	auipc	ra,0xfffff
    80001446:	100080e7          	jalr	256(ra) # 80000542 <panic>

000000008000144a <uvmdealloc>:
// newsz.  oldsz and newsz need not be page-aligned, nor does newsz
// need to be less than oldsz.  oldsz can be larger than the actual
// process size.  Returns the new process size.
uint64
uvmdealloc(pagetable_t pagetable, uint64 oldsz, uint64 newsz)
{
    8000144a:	1101                	addi	sp,sp,-32
    8000144c:	ec06                	sd	ra,24(sp)
    8000144e:	e822                	sd	s0,16(sp)
    80001450:	e426                	sd	s1,8(sp)
    80001452:	1000                	addi	s0,sp,32
  if(newsz >= oldsz)
    return oldsz;
    80001454:	84ae                	mv	s1,a1
  if(newsz >= oldsz)
    80001456:	00b67d63          	bgeu	a2,a1,80001470 <uvmdealloc+0x26>
    8000145a:	84b2                	mv	s1,a2

  if(PGROUNDUP(newsz) < PGROUNDUP(oldsz)){
    8000145c:	6785                	lui	a5,0x1
    8000145e:	17fd                	addi	a5,a5,-1
    80001460:	00f60733          	add	a4,a2,a5
    80001464:	767d                	lui	a2,0xfffff
    80001466:	8f71                	and	a4,a4,a2
    80001468:	97ae                	add	a5,a5,a1
    8000146a:	8ff1                	and	a5,a5,a2
    8000146c:	00f76863          	bltu	a4,a5,8000147c <uvmdealloc+0x32>
    int npages = (PGROUNDUP(oldsz) - PGROUNDUP(newsz)) / PGSIZE;
    uvmunmap(pagetable, PGROUNDUP(newsz), npages, 1);
  }

  return newsz;
}
    80001470:	8526                	mv	a0,s1
    80001472:	60e2                	ld	ra,24(sp)
    80001474:	6442                	ld	s0,16(sp)
    80001476:	64a2                	ld	s1,8(sp)
    80001478:	6105                	addi	sp,sp,32
    8000147a:	8082                	ret
    int npages = (PGROUNDUP(oldsz) - PGROUNDUP(newsz)) / PGSIZE;
    8000147c:	8f99                	sub	a5,a5,a4
    8000147e:	83b1                	srli	a5,a5,0xc
    uvmunmap(pagetable, PGROUNDUP(newsz), npages, 1);
    80001480:	4685                	li	a3,1
    80001482:	0007861b          	sext.w	a2,a5
    80001486:	85ba                	mv	a1,a4
    80001488:	00000097          	auipc	ra,0x0
    8000148c:	e7c080e7          	jalr	-388(ra) # 80001304 <uvmunmap>
    80001490:	b7c5                	j	80001470 <uvmdealloc+0x26>

0000000080001492 <uvmalloc>:
  if(newsz < oldsz)
    80001492:	0ab66163          	bltu	a2,a1,80001534 <uvmalloc+0xa2>
{
    80001496:	7139                	addi	sp,sp,-64
    80001498:	fc06                	sd	ra,56(sp)
    8000149a:	f822                	sd	s0,48(sp)
    8000149c:	f426                	sd	s1,40(sp)
    8000149e:	f04a                	sd	s2,32(sp)
    800014a0:	ec4e                	sd	s3,24(sp)
    800014a2:	e852                	sd	s4,16(sp)
    800014a4:	e456                	sd	s5,8(sp)
    800014a6:	0080                	addi	s0,sp,64
    800014a8:	8aaa                	mv	s5,a0
    800014aa:	8a32                	mv	s4,a2
  oldsz = PGROUNDUP(oldsz);
    800014ac:	6985                	lui	s3,0x1
    800014ae:	19fd                	addi	s3,s3,-1
    800014b0:	95ce                	add	a1,a1,s3
    800014b2:	79fd                	lui	s3,0xfffff
    800014b4:	0135f9b3          	and	s3,a1,s3
  for(a = oldsz; a < newsz; a += PGSIZE){
    800014b8:	08c9f063          	bgeu	s3,a2,80001538 <uvmalloc+0xa6>
    800014bc:	894e                	mv	s2,s3
    mem = kalloc();
    800014be:	fffff097          	auipc	ra,0xfffff
    800014c2:	650080e7          	jalr	1616(ra) # 80000b0e <kalloc>
    800014c6:	84aa                	mv	s1,a0
    if(mem == 0){
    800014c8:	c51d                	beqz	a0,800014f6 <uvmalloc+0x64>
    memset(mem, 0, PGSIZE);
    800014ca:	6605                	lui	a2,0x1
    800014cc:	4581                	li	a1,0
    800014ce:	00000097          	auipc	ra,0x0
    800014d2:	82c080e7          	jalr	-2004(ra) # 80000cfa <memset>
    if(mappages(pagetable, a, PGSIZE, (uint64)mem, PTE_W|PTE_X|PTE_R|PTE_U) != 0){
    800014d6:	4779                	li	a4,30
    800014d8:	86a6                	mv	a3,s1
    800014da:	6605                	lui	a2,0x1
    800014dc:	85ca                	mv	a1,s2
    800014de:	8556                	mv	a0,s5
    800014e0:	00000097          	auipc	ra,0x0
    800014e4:	c48080e7          	jalr	-952(ra) # 80001128 <mappages>
    800014e8:	e905                	bnez	a0,80001518 <uvmalloc+0x86>
  for(a = oldsz; a < newsz; a += PGSIZE){
    800014ea:	6785                	lui	a5,0x1
    800014ec:	993e                	add	s2,s2,a5
    800014ee:	fd4968e3          	bltu	s2,s4,800014be <uvmalloc+0x2c>
  return newsz;
    800014f2:	8552                	mv	a0,s4
    800014f4:	a809                	j	80001506 <uvmalloc+0x74>
      uvmdealloc(pagetable, a, oldsz);
    800014f6:	864e                	mv	a2,s3
    800014f8:	85ca                	mv	a1,s2
    800014fa:	8556                	mv	a0,s5
    800014fc:	00000097          	auipc	ra,0x0
    80001500:	f4e080e7          	jalr	-178(ra) # 8000144a <uvmdealloc>
      return 0;
    80001504:	4501                	li	a0,0
}
    80001506:	70e2                	ld	ra,56(sp)
    80001508:	7442                	ld	s0,48(sp)
    8000150a:	74a2                	ld	s1,40(sp)
    8000150c:	7902                	ld	s2,32(sp)
    8000150e:	69e2                	ld	s3,24(sp)
    80001510:	6a42                	ld	s4,16(sp)
    80001512:	6aa2                	ld	s5,8(sp)
    80001514:	6121                	addi	sp,sp,64
    80001516:	8082                	ret
      kfree(mem);
    80001518:	8526                	mv	a0,s1
    8000151a:	fffff097          	auipc	ra,0xfffff
    8000151e:	4f8080e7          	jalr	1272(ra) # 80000a12 <kfree>
      uvmdealloc(pagetable, a, oldsz);
    80001522:	864e                	mv	a2,s3
    80001524:	85ca                	mv	a1,s2
    80001526:	8556                	mv	a0,s5
    80001528:	00000097          	auipc	ra,0x0
    8000152c:	f22080e7          	jalr	-222(ra) # 8000144a <uvmdealloc>
      return 0;
    80001530:	4501                	li	a0,0
    80001532:	bfd1                	j	80001506 <uvmalloc+0x74>
    return oldsz;
    80001534:	852e                	mv	a0,a1
}
    80001536:	8082                	ret
  return newsz;
    80001538:	8532                	mv	a0,a2
    8000153a:	b7f1                	j	80001506 <uvmalloc+0x74>

000000008000153c <freewalk>:

// Recursively free page-table pages.
// All leaf mappings must already have been removed.
void
freewalk(pagetable_t pagetable)
{
    8000153c:	7179                	addi	sp,sp,-48
    8000153e:	f406                	sd	ra,40(sp)
    80001540:	f022                	sd	s0,32(sp)
    80001542:	ec26                	sd	s1,24(sp)
    80001544:	e84a                	sd	s2,16(sp)
    80001546:	e44e                	sd	s3,8(sp)
    80001548:	e052                	sd	s4,0(sp)
    8000154a:	1800                	addi	s0,sp,48
    8000154c:	8a2a                	mv	s4,a0
  // there are 2^9 = 512 PTEs in a page table.
  for(int i = 0; i < 512; i++){
    8000154e:	84aa                	mv	s1,a0
    80001550:	6905                	lui	s2,0x1
    80001552:	992a                	add	s2,s2,a0
    pte_t pte = pagetable[i];
    if((pte & PTE_V) && (pte & (PTE_R|PTE_W|PTE_X)) == 0){
    80001554:	4985                	li	s3,1
    80001556:	a821                	j	8000156e <freewalk+0x32>
      // this PTE points to a lower-level page table.
      uint64 child = PTE2PA(pte);
    80001558:	8129                	srli	a0,a0,0xa
      freewalk((pagetable_t)child);
    8000155a:	0532                	slli	a0,a0,0xc
    8000155c:	00000097          	auipc	ra,0x0
    80001560:	fe0080e7          	jalr	-32(ra) # 8000153c <freewalk>
      pagetable[i] = 0;
    80001564:	0004b023          	sd	zero,0(s1)
  for(int i = 0; i < 512; i++){
    80001568:	04a1                	addi	s1,s1,8
    8000156a:	03248163          	beq	s1,s2,8000158c <freewalk+0x50>
    pte_t pte = pagetable[i];
    8000156e:	6088                	ld	a0,0(s1)
    if((pte & PTE_V) && (pte & (PTE_R|PTE_W|PTE_X)) == 0){
    80001570:	00f57793          	andi	a5,a0,15
    80001574:	ff3782e3          	beq	a5,s3,80001558 <freewalk+0x1c>
    } else if(pte & PTE_V){
    80001578:	8905                	andi	a0,a0,1
    8000157a:	d57d                	beqz	a0,80001568 <freewalk+0x2c>
      panic("freewalk: leaf");
    8000157c:	00007517          	auipc	a0,0x7
    80001580:	bb450513          	addi	a0,a0,-1100 # 80008130 <digits+0x100>
    80001584:	fffff097          	auipc	ra,0xfffff
    80001588:	fbe080e7          	jalr	-66(ra) # 80000542 <panic>
    }
  }
  kfree((void*)pagetable);
    8000158c:	8552                	mv	a0,s4
    8000158e:	fffff097          	auipc	ra,0xfffff
    80001592:	484080e7          	jalr	1156(ra) # 80000a12 <kfree>
}
    80001596:	70a2                	ld	ra,40(sp)
    80001598:	7402                	ld	s0,32(sp)
    8000159a:	64e2                	ld	s1,24(sp)
    8000159c:	6942                	ld	s2,16(sp)
    8000159e:	69a2                	ld	s3,8(sp)
    800015a0:	6a02                	ld	s4,0(sp)
    800015a2:	6145                	addi	sp,sp,48
    800015a4:	8082                	ret

00000000800015a6 <uvmfree>:

// Free user memory pages,
// then free page-table pages.
void
uvmfree(pagetable_t pagetable, uint64 sz)
{
    800015a6:	1101                	addi	sp,sp,-32
    800015a8:	ec06                	sd	ra,24(sp)
    800015aa:	e822                	sd	s0,16(sp)
    800015ac:	e426                	sd	s1,8(sp)
    800015ae:	1000                	addi	s0,sp,32
    800015b0:	84aa                	mv	s1,a0
  if(sz > 0)
    800015b2:	e999                	bnez	a1,800015c8 <uvmfree+0x22>
    uvmunmap(pagetable, 0, PGROUNDUP(sz)/PGSIZE, 1);
  freewalk(pagetable);
    800015b4:	8526                	mv	a0,s1
    800015b6:	00000097          	auipc	ra,0x0
    800015ba:	f86080e7          	jalr	-122(ra) # 8000153c <freewalk>
}
    800015be:	60e2                	ld	ra,24(sp)
    800015c0:	6442                	ld	s0,16(sp)
    800015c2:	64a2                	ld	s1,8(sp)
    800015c4:	6105                	addi	sp,sp,32
    800015c6:	8082                	ret
    uvmunmap(pagetable, 0, PGROUNDUP(sz)/PGSIZE, 1);
    800015c8:	6605                	lui	a2,0x1
    800015ca:	167d                	addi	a2,a2,-1
    800015cc:	962e                	add	a2,a2,a1
    800015ce:	4685                	li	a3,1
    800015d0:	8231                	srli	a2,a2,0xc
    800015d2:	4581                	li	a1,0
    800015d4:	00000097          	auipc	ra,0x0
    800015d8:	d30080e7          	jalr	-720(ra) # 80001304 <uvmunmap>
    800015dc:	bfe1                	j	800015b4 <uvmfree+0xe>

00000000800015de <uvmcopy>:
  pte_t *pte;
  uint64 pa, i;
  uint flags;
  char *mem;

  for(i = 0; i < sz; i += PGSIZE){
    800015de:	ca4d                	beqz	a2,80001690 <uvmcopy+0xb2>
{
    800015e0:	715d                	addi	sp,sp,-80
    800015e2:	e486                	sd	ra,72(sp)
    800015e4:	e0a2                	sd	s0,64(sp)
    800015e6:	fc26                	sd	s1,56(sp)
    800015e8:	f84a                	sd	s2,48(sp)
    800015ea:	f44e                	sd	s3,40(sp)
    800015ec:	f052                	sd	s4,32(sp)
    800015ee:	ec56                	sd	s5,24(sp)
    800015f0:	e85a                	sd	s6,16(sp)
    800015f2:	e45e                	sd	s7,8(sp)
    800015f4:	0880                	addi	s0,sp,80
    800015f6:	8aaa                	mv	s5,a0
    800015f8:	8b2e                	mv	s6,a1
    800015fa:	8a32                	mv	s4,a2
  for(i = 0; i < sz; i += PGSIZE){
    800015fc:	4481                	li	s1,0
    800015fe:	a029                	j	80001608 <uvmcopy+0x2a>
    80001600:	6785                	lui	a5,0x1
    80001602:	94be                	add	s1,s1,a5
    80001604:	0744fa63          	bgeu	s1,s4,80001678 <uvmcopy+0x9a>
    if((pte = walk(old, i, 0)) == 0)
    80001608:	4601                	li	a2,0
    8000160a:	85a6                	mv	a1,s1
    8000160c:	8556                	mv	a0,s5
    8000160e:	00000097          	auipc	ra,0x0
    80001612:	9dc080e7          	jalr	-1572(ra) # 80000fea <walk>
    80001616:	d56d                	beqz	a0,80001600 <uvmcopy+0x22>
      continue;
      //panic("uvmcopy: pte should exist");
    if((*pte & PTE_V) == 0)
    80001618:	6118                	ld	a4,0(a0)
    8000161a:	00177793          	andi	a5,a4,1
    8000161e:	d3ed                	beqz	a5,80001600 <uvmcopy+0x22>
      continue;
      //panic("uvmcopy: page not present");
    pa = PTE2PA(*pte);
    80001620:	00a75593          	srli	a1,a4,0xa
    80001624:	00c59b93          	slli	s7,a1,0xc
    flags = PTE_FLAGS(*pte);
    80001628:	3ff77913          	andi	s2,a4,1023
    if((mem = kalloc()) == 0)
    8000162c:	fffff097          	auipc	ra,0xfffff
    80001630:	4e2080e7          	jalr	1250(ra) # 80000b0e <kalloc>
    80001634:	89aa                	mv	s3,a0
    80001636:	c515                	beqz	a0,80001662 <uvmcopy+0x84>
      goto err;
    memmove(mem, (char*)pa, PGSIZE);
    80001638:	6605                	lui	a2,0x1
    8000163a:	85de                	mv	a1,s7
    8000163c:	fffff097          	auipc	ra,0xfffff
    80001640:	71a080e7          	jalr	1818(ra) # 80000d56 <memmove>
    if(mappages(new, i, PGSIZE, (uint64)mem, flags) != 0){
    80001644:	874a                	mv	a4,s2
    80001646:	86ce                	mv	a3,s3
    80001648:	6605                	lui	a2,0x1
    8000164a:	85a6                	mv	a1,s1
    8000164c:	855a                	mv	a0,s6
    8000164e:	00000097          	auipc	ra,0x0
    80001652:	ada080e7          	jalr	-1318(ra) # 80001128 <mappages>
    80001656:	d54d                	beqz	a0,80001600 <uvmcopy+0x22>
      kfree(mem);
    80001658:	854e                	mv	a0,s3
    8000165a:	fffff097          	auipc	ra,0xfffff
    8000165e:	3b8080e7          	jalr	952(ra) # 80000a12 <kfree>
    }
  }
  return 0;

 err:
  uvmunmap(new, 0, i / PGSIZE, 1);
    80001662:	4685                	li	a3,1
    80001664:	00c4d613          	srli	a2,s1,0xc
    80001668:	4581                	li	a1,0
    8000166a:	855a                	mv	a0,s6
    8000166c:	00000097          	auipc	ra,0x0
    80001670:	c98080e7          	jalr	-872(ra) # 80001304 <uvmunmap>
  return -1;
    80001674:	557d                	li	a0,-1
    80001676:	a011                	j	8000167a <uvmcopy+0x9c>
  return 0;
    80001678:	4501                	li	a0,0
}
    8000167a:	60a6                	ld	ra,72(sp)
    8000167c:	6406                	ld	s0,64(sp)
    8000167e:	74e2                	ld	s1,56(sp)
    80001680:	7942                	ld	s2,48(sp)
    80001682:	79a2                	ld	s3,40(sp)
    80001684:	7a02                	ld	s4,32(sp)
    80001686:	6ae2                	ld	s5,24(sp)
    80001688:	6b42                	ld	s6,16(sp)
    8000168a:	6ba2                	ld	s7,8(sp)
    8000168c:	6161                	addi	sp,sp,80
    8000168e:	8082                	ret
  return 0;
    80001690:	4501                	li	a0,0
}
    80001692:	8082                	ret

0000000080001694 <uvmclear>:

// mark a PTE invalid for user access.
// used by exec for the user stack guard page.
void
uvmclear(pagetable_t pagetable, uint64 va)
{
    80001694:	1141                	addi	sp,sp,-16
    80001696:	e406                	sd	ra,8(sp)
    80001698:	e022                	sd	s0,0(sp)
    8000169a:	0800                	addi	s0,sp,16
  pte_t *pte;
  
  pte = walk(pagetable, va, 0);
    8000169c:	4601                	li	a2,0
    8000169e:	00000097          	auipc	ra,0x0
    800016a2:	94c080e7          	jalr	-1716(ra) # 80000fea <walk>
  if(pte == 0)
    800016a6:	c901                	beqz	a0,800016b6 <uvmclear+0x22>
    panic("uvmclear");
  *pte &= ~PTE_U;
    800016a8:	611c                	ld	a5,0(a0)
    800016aa:	9bbd                	andi	a5,a5,-17
    800016ac:	e11c                	sd	a5,0(a0)
}
    800016ae:	60a2                	ld	ra,8(sp)
    800016b0:	6402                	ld	s0,0(sp)
    800016b2:	0141                	addi	sp,sp,16
    800016b4:	8082                	ret
    panic("uvmclear");
    800016b6:	00007517          	auipc	a0,0x7
    800016ba:	a8a50513          	addi	a0,a0,-1398 # 80008140 <digits+0x110>
    800016be:	fffff097          	auipc	ra,0xfffff
    800016c2:	e84080e7          	jalr	-380(ra) # 80000542 <panic>

00000000800016c6 <copyout>:
int
copyout(pagetable_t pagetable, uint64 dstva, char *src, uint64 len)
{
  uint64 n, va0, pa0;

  while(len > 0){
    800016c6:	c6bd                	beqz	a3,80001734 <copyout+0x6e>
{
    800016c8:	715d                	addi	sp,sp,-80
    800016ca:	e486                	sd	ra,72(sp)
    800016cc:	e0a2                	sd	s0,64(sp)
    800016ce:	fc26                	sd	s1,56(sp)
    800016d0:	f84a                	sd	s2,48(sp)
    800016d2:	f44e                	sd	s3,40(sp)
    800016d4:	f052                	sd	s4,32(sp)
    800016d6:	ec56                	sd	s5,24(sp)
    800016d8:	e85a                	sd	s6,16(sp)
    800016da:	e45e                	sd	s7,8(sp)
    800016dc:	e062                	sd	s8,0(sp)
    800016de:	0880                	addi	s0,sp,80
    800016e0:	8b2a                	mv	s6,a0
    800016e2:	8c2e                	mv	s8,a1
    800016e4:	8a32                	mv	s4,a2
    800016e6:	89b6                	mv	s3,a3
    va0 = PGROUNDDOWN(dstva);
    800016e8:	7bfd                	lui	s7,0xfffff
    pa0 = walkaddr(pagetable, va0);
    if(pa0 == 0)
      return -1;
    n = PGSIZE - (dstva - va0);
    800016ea:	6a85                	lui	s5,0x1
    800016ec:	a015                	j	80001710 <copyout+0x4a>
    if(n > len)
      n = len;
    memmove((void *)(pa0 + (dstva - va0)), src, n);
    800016ee:	9562                	add	a0,a0,s8
    800016f0:	0004861b          	sext.w	a2,s1
    800016f4:	85d2                	mv	a1,s4
    800016f6:	41250533          	sub	a0,a0,s2
    800016fa:	fffff097          	auipc	ra,0xfffff
    800016fe:	65c080e7          	jalr	1628(ra) # 80000d56 <memmove>

    len -= n;
    80001702:	409989b3          	sub	s3,s3,s1
    src += n;
    80001706:	9a26                	add	s4,s4,s1
    dstva = va0 + PGSIZE;
    80001708:	01590c33          	add	s8,s2,s5
  while(len > 0){
    8000170c:	02098263          	beqz	s3,80001730 <copyout+0x6a>
    va0 = PGROUNDDOWN(dstva);
    80001710:	017c7933          	and	s2,s8,s7
    pa0 = walkaddr(pagetable, va0);
    80001714:	85ca                	mv	a1,s2
    80001716:	855a                	mv	a0,s6
    80001718:	00000097          	auipc	ra,0x0
    8000171c:	978080e7          	jalr	-1672(ra) # 80001090 <walkaddr>
    if(pa0 == 0)
    80001720:	cd01                	beqz	a0,80001738 <copyout+0x72>
    n = PGSIZE - (dstva - va0);
    80001722:	418904b3          	sub	s1,s2,s8
    80001726:	94d6                	add	s1,s1,s5
    if(n > len)
    80001728:	fc99f3e3          	bgeu	s3,s1,800016ee <copyout+0x28>
    8000172c:	84ce                	mv	s1,s3
    8000172e:	b7c1                	j	800016ee <copyout+0x28>
  }
  return 0;
    80001730:	4501                	li	a0,0
    80001732:	a021                	j	8000173a <copyout+0x74>
    80001734:	4501                	li	a0,0
}
    80001736:	8082                	ret
      return -1;
    80001738:	557d                	li	a0,-1
}
    8000173a:	60a6                	ld	ra,72(sp)
    8000173c:	6406                	ld	s0,64(sp)
    8000173e:	74e2                	ld	s1,56(sp)
    80001740:	7942                	ld	s2,48(sp)
    80001742:	79a2                	ld	s3,40(sp)
    80001744:	7a02                	ld	s4,32(sp)
    80001746:	6ae2                	ld	s5,24(sp)
    80001748:	6b42                	ld	s6,16(sp)
    8000174a:	6ba2                	ld	s7,8(sp)
    8000174c:	6c02                	ld	s8,0(sp)
    8000174e:	6161                	addi	sp,sp,80
    80001750:	8082                	ret

0000000080001752 <kvmcopymappings>:
//  src  dst 
// 
// 0 -1
int
kvmcopymappings(pagetable_t src, pagetable_t dst, uint64 start, uint64 sz)
{
    80001752:	7139                	addi	sp,sp,-64
    80001754:	fc06                	sd	ra,56(sp)
    80001756:	f822                	sd	s0,48(sp)
    80001758:	f426                	sd	s1,40(sp)
    8000175a:	f04a                	sd	s2,32(sp)
    8000175c:	ec4e                	sd	s3,24(sp)
    8000175e:	e852                	sd	s4,16(sp)
    80001760:	e456                	sd	s5,8(sp)
    80001762:	0080                	addi	s0,sp,64
  pte_t *pte;
  uint64 pa, i;
  uint flags;

  // PGROUNDUP: prevent re-mapping already mapped pages (eg. when doing growproc)
  for(i = PGROUNDUP(start); i < start + sz; i += PGSIZE){
    80001764:	6a05                	lui	s4,0x1
    80001766:	1a7d                	addi	s4,s4,-1
    80001768:	9a32                	add	s4,s4,a2
    8000176a:	77fd                	lui	a5,0xfffff
    8000176c:	00fa7a33          	and	s4,s4,a5
    80001770:	00d60933          	add	s2,a2,a3
    80001774:	072a7963          	bgeu	s4,s2,800017e6 <kvmcopymappings+0x94>
    80001778:	89aa                	mv	s3,a0
    8000177a:	8aae                	mv	s5,a1
    8000177c:	84d2                	mv	s1,s4
    8000177e:	a029                	j	80001788 <kvmcopymappings+0x36>
    80001780:	6785                	lui	a5,0x1
    80001782:	94be                	add	s1,s1,a5
    80001784:	0524f763          	bgeu	s1,s2,800017d2 <kvmcopymappings+0x80>
    if((pte = walk(src, i, 0)) == 0)
    80001788:	4601                	li	a2,0
    8000178a:	85a6                	mv	a1,s1
    8000178c:	854e                	mv	a0,s3
    8000178e:	00000097          	auipc	ra,0x0
    80001792:	85c080e7          	jalr	-1956(ra) # 80000fea <walk>
    80001796:	d56d                	beqz	a0,80001780 <kvmcopymappings+0x2e>
      continue;
      //panic("kvmcopymappings: pte should exist");
    if((*pte & PTE_V) == 0)
    80001798:	6118                	ld	a4,0(a0)
    8000179a:	00177793          	andi	a5,a4,1
    8000179e:	d3ed                	beqz	a5,80001780 <kvmcopymappings+0x2e>
      continue;
      //panic("kvmcopymappings: page not present");
    pa = PTE2PA(*pte);
    800017a0:	00a75693          	srli	a3,a4,0xa
    // `& ~PTE_U` 
    // RISC-V 
    flags = PTE_FLAGS(*pte) & ~PTE_U;
    if(mappages(dst, i, PGSIZE, pa, flags) != 0){
    800017a4:	3ef77713          	andi	a4,a4,1007
    800017a8:	06b2                	slli	a3,a3,0xc
    800017aa:	6605                	lui	a2,0x1
    800017ac:	85a6                	mv	a1,s1
    800017ae:	8556                	mv	a0,s5
    800017b0:	00000097          	auipc	ra,0x0
    800017b4:	978080e7          	jalr	-1672(ra) # 80001128 <mappages>
    800017b8:	d561                	beqz	a0,80001780 <kvmcopymappings+0x2e>
  return 0;

 err:
  // thanks @hdrkna for pointing out a mistake here.
  // original code incorrectly starts unmapping from 0 instead of PGROUNDUP(start)
  uvmunmap(dst, PGROUNDUP(start), (i - PGROUNDUP(start)) / PGSIZE, 0);
    800017ba:	41448633          	sub	a2,s1,s4
    800017be:	4681                	li	a3,0
    800017c0:	8231                	srli	a2,a2,0xc
    800017c2:	85d2                	mv	a1,s4
    800017c4:	8556                	mv	a0,s5
    800017c6:	00000097          	auipc	ra,0x0
    800017ca:	b3e080e7          	jalr	-1218(ra) # 80001304 <uvmunmap>
  return -1;
    800017ce:	557d                	li	a0,-1
    800017d0:	a011                	j	800017d4 <kvmcopymappings+0x82>
  return 0;
    800017d2:	4501                	li	a0,0
}
    800017d4:	70e2                	ld	ra,56(sp)
    800017d6:	7442                	ld	s0,48(sp)
    800017d8:	74a2                	ld	s1,40(sp)
    800017da:	7902                	ld	s2,32(sp)
    800017dc:	69e2                	ld	s3,24(sp)
    800017de:	6a42                	ld	s4,16(sp)
    800017e0:	6aa2                	ld	s5,8(sp)
    800017e2:	6121                	addi	sp,sp,64
    800017e4:	8082                	ret
  return 0;
    800017e6:	4501                	li	a0,0
    800017e8:	b7f5                	j	800017d4 <kvmcopymappings+0x82>

00000000800017ea <kvmdealloc>:

//  uvmdealloc  oldsz  newsz
// 
uint64
kvmdealloc(pagetable_t pagetable, uint64 oldsz, uint64 newsz)
{
    800017ea:	1101                	addi	sp,sp,-32
    800017ec:	ec06                	sd	ra,24(sp)
    800017ee:	e822                	sd	s0,16(sp)
    800017f0:	e426                	sd	s1,8(sp)
    800017f2:	1000                	addi	s0,sp,32
  if(newsz >= oldsz)
    return oldsz;
    800017f4:	84ae                	mv	s1,a1
  if(newsz >= oldsz)
    800017f6:	00b67d63          	bgeu	a2,a1,80001810 <kvmdealloc+0x26>
    800017fa:	84b2                	mv	s1,a2

  if(PGROUNDUP(newsz) < PGROUNDUP(oldsz)){
    800017fc:	6785                	lui	a5,0x1
    800017fe:	17fd                	addi	a5,a5,-1
    80001800:	00f60733          	add	a4,a2,a5
    80001804:	767d                	lui	a2,0xfffff
    80001806:	8f71                	and	a4,a4,a2
    80001808:	97ae                	add	a5,a5,a1
    8000180a:	8ff1                	and	a5,a5,a2
    8000180c:	00f76863          	bltu	a4,a5,8000181c <kvmdealloc+0x32>
    int npages = (PGROUNDUP(oldsz) - PGROUNDUP(newsz)) / PGSIZE;
    uvmunmap(pagetable, PGROUNDUP(newsz), npages, 0);
  }

  return newsz;
}
    80001810:	8526                	mv	a0,s1
    80001812:	60e2                	ld	ra,24(sp)
    80001814:	6442                	ld	s0,16(sp)
    80001816:	64a2                	ld	s1,8(sp)
    80001818:	6105                	addi	sp,sp,32
    8000181a:	8082                	ret
    int npages = (PGROUNDUP(oldsz) - PGROUNDUP(newsz)) / PGSIZE;
    8000181c:	8f99                	sub	a5,a5,a4
    8000181e:	83b1                	srli	a5,a5,0xc
    uvmunmap(pagetable, PGROUNDUP(newsz), npages, 0);
    80001820:	4681                	li	a3,0
    80001822:	0007861b          	sext.w	a2,a5
    80001826:	85ba                	mv	a1,a4
    80001828:	00000097          	auipc	ra,0x0
    8000182c:	adc080e7          	jalr	-1316(ra) # 80001304 <uvmunmap>
    80001830:	b7c5                	j	80001810 <kvmdealloc+0x26>

0000000080001832 <copyin>:

//  copyincopyinstr 
int
copyin(pagetable_t pagetable, char *dst, uint64 srcva, uint64 len)
{
    80001832:	1141                	addi	sp,sp,-16
    80001834:	e406                	sd	ra,8(sp)
    80001836:	e022                	sd	s0,0(sp)
    80001838:	0800                	addi	s0,sp,16
  return copyin_new(pagetable, dst, srcva, len);
    8000183a:	00005097          	auipc	ra,0x5
    8000183e:	c30080e7          	jalr	-976(ra) # 8000646a <copyin_new>
}
    80001842:	60a2                	ld	ra,8(sp)
    80001844:	6402                	ld	s0,0(sp)
    80001846:	0141                	addi	sp,sp,16
    80001848:	8082                	ret

000000008000184a <copyinstr>:

int
copyinstr(pagetable_t pagetable, char *dst, uint64 srcva, uint64 max)
{
    8000184a:	1141                	addi	sp,sp,-16
    8000184c:	e406                	sd	ra,8(sp)
    8000184e:	e022                	sd	s0,0(sp)
    80001850:	0800                	addi	s0,sp,16
  return copyinstr_new(pagetable, dst, srcva, max);
    80001852:	00005097          	auipc	ra,0x5
    80001856:	ca0080e7          	jalr	-864(ra) # 800064f2 <copyinstr_new>
}
    8000185a:	60a2                	ld	ra,8(sp)
    8000185c:	6402                	ld	s0,0(sp)
    8000185e:	0141                	addi	sp,sp,16
    80001860:	8082                	ret

0000000080001862 <pgtblprint>:

// kernel/vm.c
int pgtblprint(pagetable_t pagetable, int depth) {
    80001862:	7159                	addi	sp,sp,-112
    80001864:	f486                	sd	ra,104(sp)
    80001866:	f0a2                	sd	s0,96(sp)
    80001868:	eca6                	sd	s1,88(sp)
    8000186a:	e8ca                	sd	s2,80(sp)
    8000186c:	e4ce                	sd	s3,72(sp)
    8000186e:	e0d2                	sd	s4,64(sp)
    80001870:	fc56                	sd	s5,56(sp)
    80001872:	f85a                	sd	s6,48(sp)
    80001874:	f45e                	sd	s7,40(sp)
    80001876:	f062                	sd	s8,32(sp)
    80001878:	ec66                	sd	s9,24(sp)
    8000187a:	e86a                	sd	s10,16(sp)
    8000187c:	e46e                	sd	s11,8(sp)
    8000187e:	1880                	addi	s0,sp,112
    80001880:	8aae                	mv	s5,a1
  // there are 2^9 = 512 PTEs in a page table.
  for(int i = 0; i < 512; i++){
    80001882:	89aa                	mv	s3,a0
    80001884:	4901                	li	s2,0
    pte_t pte = pagetable[i];
    if(pte & PTE_V) { // 
      // 
      printf("..");
    80001886:	00007c97          	auipc	s9,0x7
    8000188a:	8cac8c93          	addi	s9,s9,-1846 # 80008150 <digits+0x120>
      for(int j=0;j<depth;j++) {
        printf(" ..");
      }
      printf("%d: pte %p pa %p\n", i, pte, PTE2PA(pte));
    8000188e:	00007c17          	auipc	s8,0x7
    80001892:	8d2c0c13          	addi	s8,s8,-1838 # 80008160 <digits+0x130>

      // 
      if((pte & (PTE_R|PTE_W|PTE_X)) == 0){
        // this PTE points to a lower-level page table.
        uint64 child = PTE2PA(pte);
        pgtblprint((pagetable_t)child,depth+1);
    80001896:	00158d9b          	addiw	s11,a1,1
      for(int j=0;j<depth;j++) {
    8000189a:	4d01                	li	s10,0
        printf(" ..");
    8000189c:	00007b17          	auipc	s6,0x7
    800018a0:	8bcb0b13          	addi	s6,s6,-1860 # 80008158 <digits+0x128>
  for(int i = 0; i < 512; i++){
    800018a4:	20000b93          	li	s7,512
    800018a8:	a029                	j	800018b2 <pgtblprint+0x50>
    800018aa:	2905                	addiw	s2,s2,1
    800018ac:	09a1                	addi	s3,s3,8
    800018ae:	05790d63          	beq	s2,s7,80001908 <pgtblprint+0xa6>
    pte_t pte = pagetable[i];
    800018b2:	0009ba03          	ld	s4,0(s3) # fffffffffffff000 <end+0xffffffff7ffd7fe0>
    if(pte & PTE_V) { // 
    800018b6:	001a7793          	andi	a5,s4,1
    800018ba:	dbe5                	beqz	a5,800018aa <pgtblprint+0x48>
      printf("..");
    800018bc:	8566                	mv	a0,s9
    800018be:	fffff097          	auipc	ra,0xfffff
    800018c2:	cce080e7          	jalr	-818(ra) # 8000058c <printf>
      for(int j=0;j<depth;j++) {
    800018c6:	01505b63          	blez	s5,800018dc <pgtblprint+0x7a>
    800018ca:	84ea                	mv	s1,s10
        printf(" ..");
    800018cc:	855a                	mv	a0,s6
    800018ce:	fffff097          	auipc	ra,0xfffff
    800018d2:	cbe080e7          	jalr	-834(ra) # 8000058c <printf>
      for(int j=0;j<depth;j++) {
    800018d6:	2485                	addiw	s1,s1,1
    800018d8:	fe9a9ae3          	bne	s5,s1,800018cc <pgtblprint+0x6a>
      printf("%d: pte %p pa %p\n", i, pte, PTE2PA(pte));
    800018dc:	00aa5493          	srli	s1,s4,0xa
    800018e0:	04b2                	slli	s1,s1,0xc
    800018e2:	86a6                	mv	a3,s1
    800018e4:	8652                	mv	a2,s4
    800018e6:	85ca                	mv	a1,s2
    800018e8:	8562                	mv	a0,s8
    800018ea:	fffff097          	auipc	ra,0xfffff
    800018ee:	ca2080e7          	jalr	-862(ra) # 8000058c <printf>
      if((pte & (PTE_R|PTE_W|PTE_X)) == 0){
    800018f2:	00ea7a13          	andi	s4,s4,14
    800018f6:	fa0a1ae3          	bnez	s4,800018aa <pgtblprint+0x48>
        pgtblprint((pagetable_t)child,depth+1);
    800018fa:	85ee                	mv	a1,s11
    800018fc:	8526                	mv	a0,s1
    800018fe:	00000097          	auipc	ra,0x0
    80001902:	f64080e7          	jalr	-156(ra) # 80001862 <pgtblprint>
    80001906:	b755                	j	800018aa <pgtblprint+0x48>
      }
    }
  }
  return 0;
}
    80001908:	4501                	li	a0,0
    8000190a:	70a6                	ld	ra,104(sp)
    8000190c:	7406                	ld	s0,96(sp)
    8000190e:	64e6                	ld	s1,88(sp)
    80001910:	6946                	ld	s2,80(sp)
    80001912:	69a6                	ld	s3,72(sp)
    80001914:	6a06                	ld	s4,64(sp)
    80001916:	7ae2                	ld	s5,56(sp)
    80001918:	7b42                	ld	s6,48(sp)
    8000191a:	7ba2                	ld	s7,40(sp)
    8000191c:	7c02                	ld	s8,32(sp)
    8000191e:	6ce2                	ld	s9,24(sp)
    80001920:	6d42                	ld	s10,16(sp)
    80001922:	6da2                	ld	s11,8(sp)
    80001924:	6165                	addi	sp,sp,112
    80001926:	8082                	ret

0000000080001928 <vmprint>:

int vmprint(pagetable_t pagetable) {
    80001928:	1101                	addi	sp,sp,-32
    8000192a:	ec06                	sd	ra,24(sp)
    8000192c:	e822                	sd	s0,16(sp)
    8000192e:	e426                	sd	s1,8(sp)
    80001930:	1000                	addi	s0,sp,32
    80001932:	84aa                	mv	s1,a0
  printf("page table %p\n", pagetable);
    80001934:	85aa                	mv	a1,a0
    80001936:	00007517          	auipc	a0,0x7
    8000193a:	84250513          	addi	a0,a0,-1982 # 80008178 <digits+0x148>
    8000193e:	fffff097          	auipc	ra,0xfffff
    80001942:	c4e080e7          	jalr	-946(ra) # 8000058c <printf>
  return pgtblprint(pagetable, 0);
    80001946:	4581                	li	a1,0
    80001948:	8526                	mv	a0,s1
    8000194a:	00000097          	auipc	ra,0x0
    8000194e:	f18080e7          	jalr	-232(ra) # 80001862 <pgtblprint>
    80001952:	60e2                	ld	ra,24(sp)
    80001954:	6442                	ld	s0,16(sp)
    80001956:	64a2                	ld	s1,8(sp)
    80001958:	6105                	addi	sp,sp,32
    8000195a:	8082                	ret

000000008000195c <wakeup1>:

// Wake up p if it is sleeping in wait(); used by exit().
// Caller must hold p->lock.
static void
wakeup1(struct proc *p)
{
    8000195c:	1101                	addi	sp,sp,-32
    8000195e:	ec06                	sd	ra,24(sp)
    80001960:	e822                	sd	s0,16(sp)
    80001962:	e426                	sd	s1,8(sp)
    80001964:	1000                	addi	s0,sp,32
    80001966:	84aa                	mv	s1,a0
  if(!holding(&p->lock))
    80001968:	fffff097          	auipc	ra,0xfffff
    8000196c:	21c080e7          	jalr	540(ra) # 80000b84 <holding>
    80001970:	c909                	beqz	a0,80001982 <wakeup1+0x26>
    panic("wakeup1");
  if(p->chan == p && p->state == SLEEPING) {
    80001972:	749c                	ld	a5,40(s1)
    80001974:	00978f63          	beq	a5,s1,80001992 <wakeup1+0x36>
    p->state = RUNNABLE;
  }
}
    80001978:	60e2                	ld	ra,24(sp)
    8000197a:	6442                	ld	s0,16(sp)
    8000197c:	64a2                	ld	s1,8(sp)
    8000197e:	6105                	addi	sp,sp,32
    80001980:	8082                	ret
    panic("wakeup1");
    80001982:	00007517          	auipc	a0,0x7
    80001986:	80650513          	addi	a0,a0,-2042 # 80008188 <digits+0x158>
    8000198a:	fffff097          	auipc	ra,0xfffff
    8000198e:	bb8080e7          	jalr	-1096(ra) # 80000542 <panic>
  if(p->chan == p && p->state == SLEEPING) {
    80001992:	4c98                	lw	a4,24(s1)
    80001994:	4785                	li	a5,1
    80001996:	fef711e3          	bne	a4,a5,80001978 <wakeup1+0x1c>
    p->state = RUNNABLE;
    8000199a:	4789                	li	a5,2
    8000199c:	cc9c                	sw	a5,24(s1)
}
    8000199e:	bfe9                	j	80001978 <wakeup1+0x1c>

00000000800019a0 <procinit>:
{
    800019a0:	7179                	addi	sp,sp,-48
    800019a2:	f406                	sd	ra,40(sp)
    800019a4:	f022                	sd	s0,32(sp)
    800019a6:	ec26                	sd	s1,24(sp)
    800019a8:	e84a                	sd	s2,16(sp)
    800019aa:	e44e                	sd	s3,8(sp)
    800019ac:	1800                	addi	s0,sp,48
  initlock(&pid_lock, "nextpid");
    800019ae:	00006597          	auipc	a1,0x6
    800019b2:	7e258593          	addi	a1,a1,2018 # 80008190 <digits+0x160>
    800019b6:	00010517          	auipc	a0,0x10
    800019ba:	f9a50513          	addi	a0,a0,-102 # 80011950 <pid_lock>
    800019be:	fffff097          	auipc	ra,0xfffff
    800019c2:	1b0080e7          	jalr	432(ra) # 80000b6e <initlock>
  for(p = proc; p < &proc[NPROC]; p++) {
    800019c6:	00010497          	auipc	s1,0x10
    800019ca:	3a248493          	addi	s1,s1,930 # 80011d68 <proc>
      initlock(&p->lock, "proc");
    800019ce:	00006997          	auipc	s3,0x6
    800019d2:	7ca98993          	addi	s3,s3,1994 # 80008198 <digits+0x168>
  for(p = proc; p < &proc[NPROC]; p++) {
    800019d6:	00016917          	auipc	s2,0x16
    800019da:	f9290913          	addi	s2,s2,-110 # 80017968 <tickslock>
      initlock(&p->lock, "proc");
    800019de:	85ce                	mv	a1,s3
    800019e0:	8526                	mv	a0,s1
    800019e2:	fffff097          	auipc	ra,0xfffff
    800019e6:	18c080e7          	jalr	396(ra) # 80000b6e <initlock>
  for(p = proc; p < &proc[NPROC]; p++) {
    800019ea:	17048493          	addi	s1,s1,368
    800019ee:	ff2498e3          	bne	s1,s2,800019de <procinit+0x3e>
  kvminithart();
    800019f2:	fffff097          	auipc	ra,0xfffff
    800019f6:	5d4080e7          	jalr	1492(ra) # 80000fc6 <kvminithart>
}
    800019fa:	70a2                	ld	ra,40(sp)
    800019fc:	7402                	ld	s0,32(sp)
    800019fe:	64e2                	ld	s1,24(sp)
    80001a00:	6942                	ld	s2,16(sp)
    80001a02:	69a2                	ld	s3,8(sp)
    80001a04:	6145                	addi	sp,sp,48
    80001a06:	8082                	ret

0000000080001a08 <cpuid>:
{
    80001a08:	1141                	addi	sp,sp,-16
    80001a0a:	e422                	sd	s0,8(sp)
    80001a0c:	0800                	addi	s0,sp,16
  asm volatile("mv %0, tp" : "=r" (x) );
    80001a0e:	8512                	mv	a0,tp
}
    80001a10:	2501                	sext.w	a0,a0
    80001a12:	6422                	ld	s0,8(sp)
    80001a14:	0141                	addi	sp,sp,16
    80001a16:	8082                	ret

0000000080001a18 <mycpu>:
mycpu(void) {
    80001a18:	1141                	addi	sp,sp,-16
    80001a1a:	e422                	sd	s0,8(sp)
    80001a1c:	0800                	addi	s0,sp,16
    80001a1e:	8792                	mv	a5,tp
  struct cpu *c = &cpus[id];
    80001a20:	2781                	sext.w	a5,a5
    80001a22:	079e                	slli	a5,a5,0x7
}
    80001a24:	00010517          	auipc	a0,0x10
    80001a28:	f4450513          	addi	a0,a0,-188 # 80011968 <cpus>
    80001a2c:	953e                	add	a0,a0,a5
    80001a2e:	6422                	ld	s0,8(sp)
    80001a30:	0141                	addi	sp,sp,16
    80001a32:	8082                	ret

0000000080001a34 <myproc>:
myproc(void) {
    80001a34:	1101                	addi	sp,sp,-32
    80001a36:	ec06                	sd	ra,24(sp)
    80001a38:	e822                	sd	s0,16(sp)
    80001a3a:	e426                	sd	s1,8(sp)
    80001a3c:	1000                	addi	s0,sp,32
  push_off();
    80001a3e:	fffff097          	auipc	ra,0xfffff
    80001a42:	174080e7          	jalr	372(ra) # 80000bb2 <push_off>
    80001a46:	8792                	mv	a5,tp
  struct proc *p = c->proc;
    80001a48:	2781                	sext.w	a5,a5
    80001a4a:	079e                	slli	a5,a5,0x7
    80001a4c:	00010717          	auipc	a4,0x10
    80001a50:	f0470713          	addi	a4,a4,-252 # 80011950 <pid_lock>
    80001a54:	97ba                	add	a5,a5,a4
    80001a56:	6f84                	ld	s1,24(a5)
  pop_off();
    80001a58:	fffff097          	auipc	ra,0xfffff
    80001a5c:	1fa080e7          	jalr	506(ra) # 80000c52 <pop_off>
}
    80001a60:	8526                	mv	a0,s1
    80001a62:	60e2                	ld	ra,24(sp)
    80001a64:	6442                	ld	s0,16(sp)
    80001a66:	64a2                	ld	s1,8(sp)
    80001a68:	6105                	addi	sp,sp,32
    80001a6a:	8082                	ret

0000000080001a6c <forkret>:
{
    80001a6c:	1141                	addi	sp,sp,-16
    80001a6e:	e406                	sd	ra,8(sp)
    80001a70:	e022                	sd	s0,0(sp)
    80001a72:	0800                	addi	s0,sp,16
  release(&myproc()->lock);
    80001a74:	00000097          	auipc	ra,0x0
    80001a78:	fc0080e7          	jalr	-64(ra) # 80001a34 <myproc>
    80001a7c:	fffff097          	auipc	ra,0xfffff
    80001a80:	236080e7          	jalr	566(ra) # 80000cb2 <release>
  if (first) {
    80001a84:	00007797          	auipc	a5,0x7
    80001a88:	dcc7a783          	lw	a5,-564(a5) # 80008850 <first.1>
    80001a8c:	eb89                	bnez	a5,80001a9e <forkret+0x32>
  usertrapret();
    80001a8e:	00001097          	auipc	ra,0x1
    80001a92:	dae080e7          	jalr	-594(ra) # 8000283c <usertrapret>
}
    80001a96:	60a2                	ld	ra,8(sp)
    80001a98:	6402                	ld	s0,0(sp)
    80001a9a:	0141                	addi	sp,sp,16
    80001a9c:	8082                	ret
    first = 0;
    80001a9e:	00007797          	auipc	a5,0x7
    80001aa2:	da07a923          	sw	zero,-590(a5) # 80008850 <first.1>
    fsinit(ROOTDEV);
    80001aa6:	4505                	li	a0,1
    80001aa8:	00002097          	auipc	ra,0x2
    80001aac:	b32080e7          	jalr	-1230(ra) # 800035da <fsinit>
    80001ab0:	bff9                	j	80001a8e <forkret+0x22>

0000000080001ab2 <allocpid>:
allocpid() {
    80001ab2:	1101                	addi	sp,sp,-32
    80001ab4:	ec06                	sd	ra,24(sp)
    80001ab6:	e822                	sd	s0,16(sp)
    80001ab8:	e426                	sd	s1,8(sp)
    80001aba:	e04a                	sd	s2,0(sp)
    80001abc:	1000                	addi	s0,sp,32
  acquire(&pid_lock);
    80001abe:	00010917          	auipc	s2,0x10
    80001ac2:	e9290913          	addi	s2,s2,-366 # 80011950 <pid_lock>
    80001ac6:	854a                	mv	a0,s2
    80001ac8:	fffff097          	auipc	ra,0xfffff
    80001acc:	136080e7          	jalr	310(ra) # 80000bfe <acquire>
  pid = nextpid;
    80001ad0:	00007797          	auipc	a5,0x7
    80001ad4:	d8478793          	addi	a5,a5,-636 # 80008854 <nextpid>
    80001ad8:	4384                	lw	s1,0(a5)
  nextpid = nextpid + 1;
    80001ada:	0014871b          	addiw	a4,s1,1
    80001ade:	c398                	sw	a4,0(a5)
  release(&pid_lock);
    80001ae0:	854a                	mv	a0,s2
    80001ae2:	fffff097          	auipc	ra,0xfffff
    80001ae6:	1d0080e7          	jalr	464(ra) # 80000cb2 <release>
}
    80001aea:	8526                	mv	a0,s1
    80001aec:	60e2                	ld	ra,24(sp)
    80001aee:	6442                	ld	s0,16(sp)
    80001af0:	64a2                	ld	s1,8(sp)
    80001af2:	6902                	ld	s2,0(sp)
    80001af4:	6105                	addi	sp,sp,32
    80001af6:	8082                	ret

0000000080001af8 <kvm_free_kernelpgtbl>:
{
    80001af8:	7179                	addi	sp,sp,-48
    80001afa:	f406                	sd	ra,40(sp)
    80001afc:	f022                	sd	s0,32(sp)
    80001afe:	ec26                	sd	s1,24(sp)
    80001b00:	e84a                	sd	s2,16(sp)
    80001b02:	e44e                	sd	s3,8(sp)
    80001b04:	e052                	sd	s4,0(sp)
    80001b06:	1800                	addi	s0,sp,48
    80001b08:	8a2a                	mv	s4,a0
  for(int i = 0; i < 512; i++){
    80001b0a:	84aa                	mv	s1,a0
    80001b0c:	6905                	lui	s2,0x1
    80001b0e:	992a                	add	s2,s2,a0
    if((pte & PTE_V) && (pte & (PTE_R|PTE_W|PTE_X)) == 0){ // 
    80001b10:	4985                	li	s3,1
    80001b12:	a021                	j	80001b1a <kvm_free_kernelpgtbl+0x22>
  for(int i = 0; i < 512; i++){
    80001b14:	04a1                	addi	s1,s1,8
    80001b16:	03248063          	beq	s1,s2,80001b36 <kvm_free_kernelpgtbl+0x3e>
    pte_t pte = pagetable[i];
    80001b1a:	6088                	ld	a0,0(s1)
    if((pte & PTE_V) && (pte & (PTE_R|PTE_W|PTE_X)) == 0){ // 
    80001b1c:	00f57793          	andi	a5,a0,15
    80001b20:	ff379ae3          	bne	a5,s3,80001b14 <kvm_free_kernelpgtbl+0x1c>
    uint64 child = PTE2PA(pte);
    80001b24:	8129                	srli	a0,a0,0xa
      kvm_free_kernelpgtbl((pagetable_t)child);
    80001b26:	0532                	slli	a0,a0,0xc
    80001b28:	00000097          	auipc	ra,0x0
    80001b2c:	fd0080e7          	jalr	-48(ra) # 80001af8 <kvm_free_kernelpgtbl>
      pagetable[i] = 0;
    80001b30:	0004b023          	sd	zero,0(s1)
    80001b34:	b7c5                	j	80001b14 <kvm_free_kernelpgtbl+0x1c>
  kfree((void*)pagetable); // 
    80001b36:	8552                	mv	a0,s4
    80001b38:	fffff097          	auipc	ra,0xfffff
    80001b3c:	eda080e7          	jalr	-294(ra) # 80000a12 <kfree>
}
    80001b40:	70a2                	ld	ra,40(sp)
    80001b42:	7402                	ld	s0,32(sp)
    80001b44:	64e2                	ld	s1,24(sp)
    80001b46:	6942                	ld	s2,16(sp)
    80001b48:	69a2                	ld	s3,8(sp)
    80001b4a:	6a02                	ld	s4,0(sp)
    80001b4c:	6145                	addi	sp,sp,48
    80001b4e:	8082                	ret

0000000080001b50 <proc_pagetable>:
{
    80001b50:	1101                	addi	sp,sp,-32
    80001b52:	ec06                	sd	ra,24(sp)
    80001b54:	e822                	sd	s0,16(sp)
    80001b56:	e426                	sd	s1,8(sp)
    80001b58:	e04a                	sd	s2,0(sp)
    80001b5a:	1000                	addi	s0,sp,32
    80001b5c:	892a                	mv	s2,a0
  pagetable = uvmcreate();
    80001b5e:	00000097          	auipc	ra,0x0
    80001b62:	84c080e7          	jalr	-1972(ra) # 800013aa <uvmcreate>
    80001b66:	84aa                	mv	s1,a0
  if(pagetable == 0)
    80001b68:	c121                	beqz	a0,80001ba8 <proc_pagetable+0x58>
  if(mappages(pagetable, TRAMPOLINE, PGSIZE,
    80001b6a:	4729                	li	a4,10
    80001b6c:	00005697          	auipc	a3,0x5
    80001b70:	49468693          	addi	a3,a3,1172 # 80007000 <_trampoline>
    80001b74:	6605                	lui	a2,0x1
    80001b76:	040005b7          	lui	a1,0x4000
    80001b7a:	15fd                	addi	a1,a1,-1
    80001b7c:	05b2                	slli	a1,a1,0xc
    80001b7e:	fffff097          	auipc	ra,0xfffff
    80001b82:	5aa080e7          	jalr	1450(ra) # 80001128 <mappages>
    80001b86:	02054863          	bltz	a0,80001bb6 <proc_pagetable+0x66>
  if(mappages(pagetable, TRAPFRAME, PGSIZE,
    80001b8a:	4719                	li	a4,6
    80001b8c:	06093683          	ld	a3,96(s2) # 1060 <_entry-0x7fffefa0>
    80001b90:	6605                	lui	a2,0x1
    80001b92:	020005b7          	lui	a1,0x2000
    80001b96:	15fd                	addi	a1,a1,-1
    80001b98:	05b6                	slli	a1,a1,0xd
    80001b9a:	8526                	mv	a0,s1
    80001b9c:	fffff097          	auipc	ra,0xfffff
    80001ba0:	58c080e7          	jalr	1420(ra) # 80001128 <mappages>
    80001ba4:	02054163          	bltz	a0,80001bc6 <proc_pagetable+0x76>
}
    80001ba8:	8526                	mv	a0,s1
    80001baa:	60e2                	ld	ra,24(sp)
    80001bac:	6442                	ld	s0,16(sp)
    80001bae:	64a2                	ld	s1,8(sp)
    80001bb0:	6902                	ld	s2,0(sp)
    80001bb2:	6105                	addi	sp,sp,32
    80001bb4:	8082                	ret
    uvmfree(pagetable, 0);
    80001bb6:	4581                	li	a1,0
    80001bb8:	8526                	mv	a0,s1
    80001bba:	00000097          	auipc	ra,0x0
    80001bbe:	9ec080e7          	jalr	-1556(ra) # 800015a6 <uvmfree>
    return 0;
    80001bc2:	4481                	li	s1,0
    80001bc4:	b7d5                	j	80001ba8 <proc_pagetable+0x58>
    uvmunmap(pagetable, TRAMPOLINE, 1, 0);
    80001bc6:	4681                	li	a3,0
    80001bc8:	4605                	li	a2,1
    80001bca:	040005b7          	lui	a1,0x4000
    80001bce:	15fd                	addi	a1,a1,-1
    80001bd0:	05b2                	slli	a1,a1,0xc
    80001bd2:	8526                	mv	a0,s1
    80001bd4:	fffff097          	auipc	ra,0xfffff
    80001bd8:	730080e7          	jalr	1840(ra) # 80001304 <uvmunmap>
    uvmfree(pagetable, 0);
    80001bdc:	4581                	li	a1,0
    80001bde:	8526                	mv	a0,s1
    80001be0:	00000097          	auipc	ra,0x0
    80001be4:	9c6080e7          	jalr	-1594(ra) # 800015a6 <uvmfree>
    return 0;
    80001be8:	4481                	li	s1,0
    80001bea:	bf7d                	j	80001ba8 <proc_pagetable+0x58>

0000000080001bec <proc_freepagetable>:
{
    80001bec:	1101                	addi	sp,sp,-32
    80001bee:	ec06                	sd	ra,24(sp)
    80001bf0:	e822                	sd	s0,16(sp)
    80001bf2:	e426                	sd	s1,8(sp)
    80001bf4:	e04a                	sd	s2,0(sp)
    80001bf6:	1000                	addi	s0,sp,32
    80001bf8:	84aa                	mv	s1,a0
    80001bfa:	892e                	mv	s2,a1
  uvmunmap(pagetable, TRAMPOLINE, 1, 0);
    80001bfc:	4681                	li	a3,0
    80001bfe:	4605                	li	a2,1
    80001c00:	040005b7          	lui	a1,0x4000
    80001c04:	15fd                	addi	a1,a1,-1
    80001c06:	05b2                	slli	a1,a1,0xc
    80001c08:	fffff097          	auipc	ra,0xfffff
    80001c0c:	6fc080e7          	jalr	1788(ra) # 80001304 <uvmunmap>
  uvmunmap(pagetable, TRAPFRAME, 1, 0);
    80001c10:	4681                	li	a3,0
    80001c12:	4605                	li	a2,1
    80001c14:	020005b7          	lui	a1,0x2000
    80001c18:	15fd                	addi	a1,a1,-1
    80001c1a:	05b6                	slli	a1,a1,0xd
    80001c1c:	8526                	mv	a0,s1
    80001c1e:	fffff097          	auipc	ra,0xfffff
    80001c22:	6e6080e7          	jalr	1766(ra) # 80001304 <uvmunmap>
  uvmfree(pagetable, sz);
    80001c26:	85ca                	mv	a1,s2
    80001c28:	8526                	mv	a0,s1
    80001c2a:	00000097          	auipc	ra,0x0
    80001c2e:	97c080e7          	jalr	-1668(ra) # 800015a6 <uvmfree>
}
    80001c32:	60e2                	ld	ra,24(sp)
    80001c34:	6442                	ld	s0,16(sp)
    80001c36:	64a2                	ld	s1,8(sp)
    80001c38:	6902                	ld	s2,0(sp)
    80001c3a:	6105                	addi	sp,sp,32
    80001c3c:	8082                	ret

0000000080001c3e <freeproc>:
{
    80001c3e:	1101                	addi	sp,sp,-32
    80001c40:	ec06                	sd	ra,24(sp)
    80001c42:	e822                	sd	s0,16(sp)
    80001c44:	e426                	sd	s1,8(sp)
    80001c46:	1000                	addi	s0,sp,32
    80001c48:	84aa                	mv	s1,a0
  if(p->trapframe)
    80001c4a:	7128                	ld	a0,96(a0)
    80001c4c:	c509                	beqz	a0,80001c56 <freeproc+0x18>
    kfree((void*)p->trapframe);
    80001c4e:	fffff097          	auipc	ra,0xfffff
    80001c52:	dc4080e7          	jalr	-572(ra) # 80000a12 <kfree>
  p->trapframe = 0;
    80001c56:	0604b023          	sd	zero,96(s1)
  if(p->pagetable)
    80001c5a:	68a8                	ld	a0,80(s1)
    80001c5c:	c511                	beqz	a0,80001c68 <freeproc+0x2a>
    proc_freepagetable(p->pagetable, p->sz);
    80001c5e:	64ac                	ld	a1,72(s1)
    80001c60:	00000097          	auipc	ra,0x0
    80001c64:	f8c080e7          	jalr	-116(ra) # 80001bec <proc_freepagetable>
  p->pagetable = 0;
    80001c68:	0404b823          	sd	zero,80(s1)
  p->sz = 0;
    80001c6c:	0404b423          	sd	zero,72(s1)
  p->pid = 0;
    80001c70:	0204ac23          	sw	zero,56(s1)
  p->parent = 0;
    80001c74:	0204b023          	sd	zero,32(s1)
  p->name[0] = 0;
    80001c78:	16048023          	sb	zero,352(s1)
  p->chan = 0;
    80001c7c:	0204b423          	sd	zero,40(s1)
  p->killed = 0;
    80001c80:	0204a823          	sw	zero,48(s1)
  p->xstate = 0;
    80001c84:	0204aa23          	sw	zero,52(s1)
  void *kstack_pa = (void *)kvmpa(p->kernelpgtbl, p->kstack);
    80001c88:	60ac                	ld	a1,64(s1)
    80001c8a:	6ca8                	ld	a0,88(s1)
    80001c8c:	fffff097          	auipc	ra,0xfffff
    80001c90:	446080e7          	jalr	1094(ra) # 800010d2 <kvmpa>
  kfree(kstack_pa);
    80001c94:	fffff097          	auipc	ra,0xfffff
    80001c98:	d7e080e7          	jalr	-642(ra) # 80000a12 <kfree>
  p->kstack = 0;
    80001c9c:	0404b023          	sd	zero,64(s1)
  kvm_free_kernelpgtbl(p->kernelpgtbl);
    80001ca0:	6ca8                	ld	a0,88(s1)
    80001ca2:	00000097          	auipc	ra,0x0
    80001ca6:	e56080e7          	jalr	-426(ra) # 80001af8 <kvm_free_kernelpgtbl>
  p->kernelpgtbl = 0;
    80001caa:	0404bc23          	sd	zero,88(s1)
  p->state = UNUSED;
    80001cae:	0004ac23          	sw	zero,24(s1)
}
    80001cb2:	60e2                	ld	ra,24(sp)
    80001cb4:	6442                	ld	s0,16(sp)
    80001cb6:	64a2                	ld	s1,8(sp)
    80001cb8:	6105                	addi	sp,sp,32
    80001cba:	8082                	ret

0000000080001cbc <allocproc>:
{
    80001cbc:	1101                	addi	sp,sp,-32
    80001cbe:	ec06                	sd	ra,24(sp)
    80001cc0:	e822                	sd	s0,16(sp)
    80001cc2:	e426                	sd	s1,8(sp)
    80001cc4:	e04a                	sd	s2,0(sp)
    80001cc6:	1000                	addi	s0,sp,32
  for(p = proc; p < &proc[NPROC]; p++) {
    80001cc8:	00010497          	auipc	s1,0x10
    80001ccc:	0a048493          	addi	s1,s1,160 # 80011d68 <proc>
    80001cd0:	00016917          	auipc	s2,0x16
    80001cd4:	c9890913          	addi	s2,s2,-872 # 80017968 <tickslock>
    acquire(&p->lock);
    80001cd8:	8526                	mv	a0,s1
    80001cda:	fffff097          	auipc	ra,0xfffff
    80001cde:	f24080e7          	jalr	-220(ra) # 80000bfe <acquire>
    if(p->state == UNUSED) {
    80001ce2:	4c9c                	lw	a5,24(s1)
    80001ce4:	cf81                	beqz	a5,80001cfc <allocproc+0x40>
      release(&p->lock);
    80001ce6:	8526                	mv	a0,s1
    80001ce8:	fffff097          	auipc	ra,0xfffff
    80001cec:	fca080e7          	jalr	-54(ra) # 80000cb2 <release>
  for(p = proc; p < &proc[NPROC]; p++) {
    80001cf0:	17048493          	addi	s1,s1,368
    80001cf4:	ff2492e3          	bne	s1,s2,80001cd8 <allocproc+0x1c>
  return 0;
    80001cf8:	4481                	li	s1,0
    80001cfa:	a049                	j	80001d7c <allocproc+0xc0>
  p->pid = allocpid();
    80001cfc:	00000097          	auipc	ra,0x0
    80001d00:	db6080e7          	jalr	-586(ra) # 80001ab2 <allocpid>
    80001d04:	dc88                	sw	a0,56(s1)
  if((p->trapframe = (struct trapframe *)kalloc()) == 0){
    80001d06:	fffff097          	auipc	ra,0xfffff
    80001d0a:	e08080e7          	jalr	-504(ra) # 80000b0e <kalloc>
    80001d0e:	892a                	mv	s2,a0
    80001d10:	f0a8                	sd	a0,96(s1)
    80001d12:	cd25                	beqz	a0,80001d8a <allocproc+0xce>
  p->pagetable = proc_pagetable(p);
    80001d14:	8526                	mv	a0,s1
    80001d16:	00000097          	auipc	ra,0x0
    80001d1a:	e3a080e7          	jalr	-454(ra) # 80001b50 <proc_pagetable>
    80001d1e:	892a                	mv	s2,a0
    80001d20:	e8a8                	sd	a0,80(s1)
  if(p->pagetable == 0){
    80001d22:	c93d                	beqz	a0,80001d98 <allocproc+0xdc>
  p->kernelpgtbl = kvminit_newpgtbl();
    80001d24:	fffff097          	auipc	ra,0xfffff
    80001d28:	576080e7          	jalr	1398(ra) # 8000129a <kvminit_newpgtbl>
    80001d2c:	eca8                	sd	a0,88(s1)
  char *pa = kalloc();
    80001d2e:	fffff097          	auipc	ra,0xfffff
    80001d32:	de0080e7          	jalr	-544(ra) # 80000b0e <kalloc>
    80001d36:	862a                	mv	a2,a0
  if(pa == 0)
    80001d38:	cd25                	beqz	a0,80001db0 <allocproc+0xf4>
  kvmmap(p->kernelpgtbl, va, (uint64)pa, PGSIZE, PTE_R | PTE_W);
    80001d3a:	4719                	li	a4,6
    80001d3c:	6685                	lui	a3,0x1
    80001d3e:	04000937          	lui	s2,0x4000
    80001d42:	1975                	addi	s2,s2,-3
    80001d44:	00c91593          	slli	a1,s2,0xc
    80001d48:	6ca8                	ld	a0,88(s1)
    80001d4a:	fffff097          	auipc	ra,0xfffff
    80001d4e:	46c080e7          	jalr	1132(ra) # 800011b6 <kvmmap>
  p->kstack = va; //  xv6 
    80001d52:	0932                	slli	s2,s2,0xc
    80001d54:	0524b023          	sd	s2,64(s1)
  memset(&p->context, 0, sizeof(p->context));
    80001d58:	07000613          	li	a2,112
    80001d5c:	4581                	li	a1,0
    80001d5e:	06848513          	addi	a0,s1,104
    80001d62:	fffff097          	auipc	ra,0xfffff
    80001d66:	f98080e7          	jalr	-104(ra) # 80000cfa <memset>
  p->context.ra = (uint64)forkret;
    80001d6a:	00000797          	auipc	a5,0x0
    80001d6e:	d0278793          	addi	a5,a5,-766 # 80001a6c <forkret>
    80001d72:	f4bc                	sd	a5,104(s1)
  p->context.sp = p->kstack + PGSIZE;
    80001d74:	60bc                	ld	a5,64(s1)
    80001d76:	6705                	lui	a4,0x1
    80001d78:	97ba                	add	a5,a5,a4
    80001d7a:	f8bc                	sd	a5,112(s1)
}
    80001d7c:	8526                	mv	a0,s1
    80001d7e:	60e2                	ld	ra,24(sp)
    80001d80:	6442                	ld	s0,16(sp)
    80001d82:	64a2                	ld	s1,8(sp)
    80001d84:	6902                	ld	s2,0(sp)
    80001d86:	6105                	addi	sp,sp,32
    80001d88:	8082                	ret
    release(&p->lock);
    80001d8a:	8526                	mv	a0,s1
    80001d8c:	fffff097          	auipc	ra,0xfffff
    80001d90:	f26080e7          	jalr	-218(ra) # 80000cb2 <release>
    return 0;
    80001d94:	84ca                	mv	s1,s2
    80001d96:	b7dd                	j	80001d7c <allocproc+0xc0>
    freeproc(p);
    80001d98:	8526                	mv	a0,s1
    80001d9a:	00000097          	auipc	ra,0x0
    80001d9e:	ea4080e7          	jalr	-348(ra) # 80001c3e <freeproc>
    release(&p->lock);
    80001da2:	8526                	mv	a0,s1
    80001da4:	fffff097          	auipc	ra,0xfffff
    80001da8:	f0e080e7          	jalr	-242(ra) # 80000cb2 <release>
    return 0;
    80001dac:	84ca                	mv	s1,s2
    80001dae:	b7f9                	j	80001d7c <allocproc+0xc0>
    panic("kalloc");
    80001db0:	00006517          	auipc	a0,0x6
    80001db4:	3f050513          	addi	a0,a0,1008 # 800081a0 <digits+0x170>
    80001db8:	ffffe097          	auipc	ra,0xffffe
    80001dbc:	78a080e7          	jalr	1930(ra) # 80000542 <panic>

0000000080001dc0 <userinit>:
{
    80001dc0:	1101                	addi	sp,sp,-32
    80001dc2:	ec06                	sd	ra,24(sp)
    80001dc4:	e822                	sd	s0,16(sp)
    80001dc6:	e426                	sd	s1,8(sp)
    80001dc8:	e04a                	sd	s2,0(sp)
    80001dca:	1000                	addi	s0,sp,32
  p = allocproc();
    80001dcc:	00000097          	auipc	ra,0x0
    80001dd0:	ef0080e7          	jalr	-272(ra) # 80001cbc <allocproc>
    80001dd4:	84aa                	mv	s1,a0
  initproc = p;
    80001dd6:	00007797          	auipc	a5,0x7
    80001dda:	24a7b123          	sd	a0,578(a5) # 80009018 <initproc>
  uvminit(p->pagetable, initcode, sizeof(initcode));
    80001dde:	03400613          	li	a2,52
    80001de2:	00007597          	auipc	a1,0x7
    80001de6:	a7e58593          	addi	a1,a1,-1410 # 80008860 <initcode>
    80001dea:	6928                	ld	a0,80(a0)
    80001dec:	fffff097          	auipc	ra,0xfffff
    80001df0:	5ec080e7          	jalr	1516(ra) # 800013d8 <uvminit>
  p->sz = PGSIZE;
    80001df4:	6905                	lui	s2,0x1
    80001df6:	0524b423          	sd	s2,72(s1)
  kvmcopymappings(p->pagetable, p->kernelpgtbl, 0, p->sz); // 
    80001dfa:	6685                	lui	a3,0x1
    80001dfc:	4601                	li	a2,0
    80001dfe:	6cac                	ld	a1,88(s1)
    80001e00:	68a8                	ld	a0,80(s1)
    80001e02:	00000097          	auipc	ra,0x0
    80001e06:	950080e7          	jalr	-1712(ra) # 80001752 <kvmcopymappings>
  p->trapframe->epc = 0;      // user program counter
    80001e0a:	70bc                	ld	a5,96(s1)
    80001e0c:	0007bc23          	sd	zero,24(a5)
  p->trapframe->sp = PGSIZE;  // user stack pointer
    80001e10:	70bc                	ld	a5,96(s1)
    80001e12:	0327b823          	sd	s2,48(a5)
  safestrcpy(p->name, "initcode", sizeof(p->name));
    80001e16:	4641                	li	a2,16
    80001e18:	00006597          	auipc	a1,0x6
    80001e1c:	39058593          	addi	a1,a1,912 # 800081a8 <digits+0x178>
    80001e20:	16048513          	addi	a0,s1,352
    80001e24:	fffff097          	auipc	ra,0xfffff
    80001e28:	028080e7          	jalr	40(ra) # 80000e4c <safestrcpy>
  p->cwd = namei("/");
    80001e2c:	00006517          	auipc	a0,0x6
    80001e30:	38c50513          	addi	a0,a0,908 # 800081b8 <digits+0x188>
    80001e34:	00002097          	auipc	ra,0x2
    80001e38:	1ce080e7          	jalr	462(ra) # 80004002 <namei>
    80001e3c:	14a4bc23          	sd	a0,344(s1)
  p->state = RUNNABLE;
    80001e40:	4789                	li	a5,2
    80001e42:	cc9c                	sw	a5,24(s1)
  release(&p->lock);
    80001e44:	8526                	mv	a0,s1
    80001e46:	fffff097          	auipc	ra,0xfffff
    80001e4a:	e6c080e7          	jalr	-404(ra) # 80000cb2 <release>
}
    80001e4e:	60e2                	ld	ra,24(sp)
    80001e50:	6442                	ld	s0,16(sp)
    80001e52:	64a2                	ld	s1,8(sp)
    80001e54:	6902                	ld	s2,0(sp)
    80001e56:	6105                	addi	sp,sp,32
    80001e58:	8082                	ret

0000000080001e5a <fork>:
{
    80001e5a:	7139                	addi	sp,sp,-64
    80001e5c:	fc06                	sd	ra,56(sp)
    80001e5e:	f822                	sd	s0,48(sp)
    80001e60:	f426                	sd	s1,40(sp)
    80001e62:	f04a                	sd	s2,32(sp)
    80001e64:	ec4e                	sd	s3,24(sp)
    80001e66:	e852                	sd	s4,16(sp)
    80001e68:	e456                	sd	s5,8(sp)
    80001e6a:	0080                	addi	s0,sp,64
  struct proc *p = myproc();
    80001e6c:	00000097          	auipc	ra,0x0
    80001e70:	bc8080e7          	jalr	-1080(ra) # 80001a34 <myproc>
    80001e74:	8aaa                	mv	s5,a0
  if((np = allocproc()) == 0){
    80001e76:	00000097          	auipc	ra,0x0
    80001e7a:	e46080e7          	jalr	-442(ra) # 80001cbc <allocproc>
    80001e7e:	10050163          	beqz	a0,80001f80 <fork+0x126>
    80001e82:	89aa                	mv	s3,a0
  if(uvmcopy(p->pagetable, np->pagetable, p->sz) < 0 ||
    80001e84:	048ab603          	ld	a2,72(s5) # 1048 <_entry-0x7fffefb8>
    80001e88:	692c                	ld	a1,80(a0)
    80001e8a:	050ab503          	ld	a0,80(s5)
    80001e8e:	fffff097          	auipc	ra,0xfffff
    80001e92:	750080e7          	jalr	1872(ra) # 800015de <uvmcopy>
    80001e96:	06054763          	bltz	a0,80001f04 <fork+0xaa>
      kvmcopymappings(np->pagetable, np->kernelpgtbl, 0, p->sz) < 0){
    80001e9a:	048ab683          	ld	a3,72(s5)
    80001e9e:	4601                	li	a2,0
    80001ea0:	0589b583          	ld	a1,88(s3)
    80001ea4:	0509b503          	ld	a0,80(s3)
    80001ea8:	00000097          	auipc	ra,0x0
    80001eac:	8aa080e7          	jalr	-1878(ra) # 80001752 <kvmcopymappings>
  if(uvmcopy(p->pagetable, np->pagetable, p->sz) < 0 ||
    80001eb0:	04054a63          	bltz	a0,80001f04 <fork+0xaa>
  np->sz = p->sz;
    80001eb4:	048ab783          	ld	a5,72(s5)
    80001eb8:	04f9b423          	sd	a5,72(s3)
  np->parent = p;
    80001ebc:	0359b023          	sd	s5,32(s3)
  *(np->trapframe) = *(p->trapframe);
    80001ec0:	060ab683          	ld	a3,96(s5)
    80001ec4:	87b6                	mv	a5,a3
    80001ec6:	0609b703          	ld	a4,96(s3)
    80001eca:	12068693          	addi	a3,a3,288 # 1120 <_entry-0x7fffeee0>
    80001ece:	0007b803          	ld	a6,0(a5)
    80001ed2:	6788                	ld	a0,8(a5)
    80001ed4:	6b8c                	ld	a1,16(a5)
    80001ed6:	6f90                	ld	a2,24(a5)
    80001ed8:	01073023          	sd	a6,0(a4) # 1000 <_entry-0x7ffff000>
    80001edc:	e708                	sd	a0,8(a4)
    80001ede:	eb0c                	sd	a1,16(a4)
    80001ee0:	ef10                	sd	a2,24(a4)
    80001ee2:	02078793          	addi	a5,a5,32
    80001ee6:	02070713          	addi	a4,a4,32
    80001eea:	fed792e3          	bne	a5,a3,80001ece <fork+0x74>
  np->trapframe->a0 = 0;
    80001eee:	0609b783          	ld	a5,96(s3)
    80001ef2:	0607b823          	sd	zero,112(a5)
  for(i = 0; i < NOFILE; i++)
    80001ef6:	0d8a8493          	addi	s1,s5,216
    80001efa:	0d898913          	addi	s2,s3,216
    80001efe:	158a8a13          	addi	s4,s5,344
    80001f02:	a00d                	j	80001f24 <fork+0xca>
    freeproc(np);
    80001f04:	854e                	mv	a0,s3
    80001f06:	00000097          	auipc	ra,0x0
    80001f0a:	d38080e7          	jalr	-712(ra) # 80001c3e <freeproc>
    release(&np->lock);
    80001f0e:	854e                	mv	a0,s3
    80001f10:	fffff097          	auipc	ra,0xfffff
    80001f14:	da2080e7          	jalr	-606(ra) # 80000cb2 <release>
    return -1;
    80001f18:	54fd                	li	s1,-1
    80001f1a:	a889                	j	80001f6c <fork+0x112>
  for(i = 0; i < NOFILE; i++)
    80001f1c:	04a1                	addi	s1,s1,8
    80001f1e:	0921                	addi	s2,s2,8
    80001f20:	01448b63          	beq	s1,s4,80001f36 <fork+0xdc>
    if(p->ofile[i])
    80001f24:	6088                	ld	a0,0(s1)
    80001f26:	d97d                	beqz	a0,80001f1c <fork+0xc2>
      np->ofile[i] = filedup(p->ofile[i]);
    80001f28:	00002097          	auipc	ra,0x2
    80001f2c:	766080e7          	jalr	1894(ra) # 8000468e <filedup>
    80001f30:	00a93023          	sd	a0,0(s2) # 1000 <_entry-0x7ffff000>
    80001f34:	b7e5                	j	80001f1c <fork+0xc2>
  np->cwd = idup(p->cwd);
    80001f36:	158ab503          	ld	a0,344(s5)
    80001f3a:	00002097          	auipc	ra,0x2
    80001f3e:	8da080e7          	jalr	-1830(ra) # 80003814 <idup>
    80001f42:	14a9bc23          	sd	a0,344(s3)
  safestrcpy(np->name, p->name, sizeof(p->name));
    80001f46:	4641                	li	a2,16
    80001f48:	160a8593          	addi	a1,s5,352
    80001f4c:	16098513          	addi	a0,s3,352
    80001f50:	fffff097          	auipc	ra,0xfffff
    80001f54:	efc080e7          	jalr	-260(ra) # 80000e4c <safestrcpy>
  pid = np->pid;
    80001f58:	0389a483          	lw	s1,56(s3)
  np->state = RUNNABLE;
    80001f5c:	4789                	li	a5,2
    80001f5e:	00f9ac23          	sw	a5,24(s3)
  release(&np->lock);
    80001f62:	854e                	mv	a0,s3
    80001f64:	fffff097          	auipc	ra,0xfffff
    80001f68:	d4e080e7          	jalr	-690(ra) # 80000cb2 <release>
}
    80001f6c:	8526                	mv	a0,s1
    80001f6e:	70e2                	ld	ra,56(sp)
    80001f70:	7442                	ld	s0,48(sp)
    80001f72:	74a2                	ld	s1,40(sp)
    80001f74:	7902                	ld	s2,32(sp)
    80001f76:	69e2                	ld	s3,24(sp)
    80001f78:	6a42                	ld	s4,16(sp)
    80001f7a:	6aa2                	ld	s5,8(sp)
    80001f7c:	6121                	addi	sp,sp,64
    80001f7e:	8082                	ret
    return -1;
    80001f80:	54fd                	li	s1,-1
    80001f82:	b7ed                	j	80001f6c <fork+0x112>

0000000080001f84 <reparent>:
{
    80001f84:	7179                	addi	sp,sp,-48
    80001f86:	f406                	sd	ra,40(sp)
    80001f88:	f022                	sd	s0,32(sp)
    80001f8a:	ec26                	sd	s1,24(sp)
    80001f8c:	e84a                	sd	s2,16(sp)
    80001f8e:	e44e                	sd	s3,8(sp)
    80001f90:	e052                	sd	s4,0(sp)
    80001f92:	1800                	addi	s0,sp,48
    80001f94:	892a                	mv	s2,a0
  for(pp = proc; pp < &proc[NPROC]; pp++){
    80001f96:	00010497          	auipc	s1,0x10
    80001f9a:	dd248493          	addi	s1,s1,-558 # 80011d68 <proc>
      pp->parent = initproc;
    80001f9e:	00007a17          	auipc	s4,0x7
    80001fa2:	07aa0a13          	addi	s4,s4,122 # 80009018 <initproc>
  for(pp = proc; pp < &proc[NPROC]; pp++){
    80001fa6:	00016997          	auipc	s3,0x16
    80001faa:	9c298993          	addi	s3,s3,-1598 # 80017968 <tickslock>
    80001fae:	a029                	j	80001fb8 <reparent+0x34>
    80001fb0:	17048493          	addi	s1,s1,368
    80001fb4:	03348363          	beq	s1,s3,80001fda <reparent+0x56>
    if(pp->parent == p){
    80001fb8:	709c                	ld	a5,32(s1)
    80001fba:	ff279be3          	bne	a5,s2,80001fb0 <reparent+0x2c>
      acquire(&pp->lock);
    80001fbe:	8526                	mv	a0,s1
    80001fc0:	fffff097          	auipc	ra,0xfffff
    80001fc4:	c3e080e7          	jalr	-962(ra) # 80000bfe <acquire>
      pp->parent = initproc;
    80001fc8:	000a3783          	ld	a5,0(s4)
    80001fcc:	f09c                	sd	a5,32(s1)
      release(&pp->lock);
    80001fce:	8526                	mv	a0,s1
    80001fd0:	fffff097          	auipc	ra,0xfffff
    80001fd4:	ce2080e7          	jalr	-798(ra) # 80000cb2 <release>
    80001fd8:	bfe1                	j	80001fb0 <reparent+0x2c>
}
    80001fda:	70a2                	ld	ra,40(sp)
    80001fdc:	7402                	ld	s0,32(sp)
    80001fde:	64e2                	ld	s1,24(sp)
    80001fe0:	6942                	ld	s2,16(sp)
    80001fe2:	69a2                	ld	s3,8(sp)
    80001fe4:	6a02                	ld	s4,0(sp)
    80001fe6:	6145                	addi	sp,sp,48
    80001fe8:	8082                	ret

0000000080001fea <scheduler>:
{
    80001fea:	715d                	addi	sp,sp,-80
    80001fec:	e486                	sd	ra,72(sp)
    80001fee:	e0a2                	sd	s0,64(sp)
    80001ff0:	fc26                	sd	s1,56(sp)
    80001ff2:	f84a                	sd	s2,48(sp)
    80001ff4:	f44e                	sd	s3,40(sp)
    80001ff6:	f052                	sd	s4,32(sp)
    80001ff8:	ec56                	sd	s5,24(sp)
    80001ffa:	e85a                	sd	s6,16(sp)
    80001ffc:	e45e                	sd	s7,8(sp)
    80001ffe:	e062                	sd	s8,0(sp)
    80002000:	0880                	addi	s0,sp,80
    80002002:	8792                	mv	a5,tp
  int id = r_tp();
    80002004:	2781                	sext.w	a5,a5
  c->proc = 0;
    80002006:	00779b13          	slli	s6,a5,0x7
    8000200a:	00010717          	auipc	a4,0x10
    8000200e:	94670713          	addi	a4,a4,-1722 # 80011950 <pid_lock>
    80002012:	975a                	add	a4,a4,s6
    80002014:	00073c23          	sd	zero,24(a4)
        swtch(&c->context, &p->context);
    80002018:	00010717          	auipc	a4,0x10
    8000201c:	95870713          	addi	a4,a4,-1704 # 80011970 <cpus+0x8>
    80002020:	9b3a                	add	s6,s6,a4
        c->proc = p;
    80002022:	079e                	slli	a5,a5,0x7
    80002024:	00010a17          	auipc	s4,0x10
    80002028:	92ca0a13          	addi	s4,s4,-1748 # 80011950 <pid_lock>
    8000202c:	9a3e                	add	s4,s4,a5
        w_satp(MAKE_SATP(p->kernelpgtbl));
    8000202e:	5bfd                	li	s7,-1
    80002030:	1bfe                	slli	s7,s7,0x3f
    for(p = proc; p < &proc[NPROC]; p++) {
    80002032:	00016997          	auipc	s3,0x16
    80002036:	93698993          	addi	s3,s3,-1738 # 80017968 <tickslock>
    8000203a:	a0bd                	j	800020a8 <scheduler+0xbe>
      release(&p->lock);
    8000203c:	8526                	mv	a0,s1
    8000203e:	fffff097          	auipc	ra,0xfffff
    80002042:	c74080e7          	jalr	-908(ra) # 80000cb2 <release>
    for(p = proc; p < &proc[NPROC]; p++) {
    80002046:	17048493          	addi	s1,s1,368
    8000204a:	05348563          	beq	s1,s3,80002094 <scheduler+0xaa>
      acquire(&p->lock);
    8000204e:	8526                	mv	a0,s1
    80002050:	fffff097          	auipc	ra,0xfffff
    80002054:	bae080e7          	jalr	-1106(ra) # 80000bfe <acquire>
      if(p->state == RUNNABLE) {
    80002058:	4c9c                	lw	a5,24(s1)
    8000205a:	ff2791e3          	bne	a5,s2,8000203c <scheduler+0x52>
        p->state = RUNNING;
    8000205e:	0154ac23          	sw	s5,24(s1)
        c->proc = p;
    80002062:	009a3c23          	sd	s1,24(s4)
        w_satp(MAKE_SATP(p->kernelpgtbl));
    80002066:	6cbc                	ld	a5,88(s1)
    80002068:	83b1                	srli	a5,a5,0xc
    8000206a:	0177e7b3          	or	a5,a5,s7
  asm volatile("csrw satp, %0" : : "r" (x));
    8000206e:	18079073          	csrw	satp,a5
  asm volatile("sfence.vma zero, zero");
    80002072:	12000073          	sfence.vma
        swtch(&c->context, &p->context);
    80002076:	06848593          	addi	a1,s1,104
    8000207a:	855a                	mv	a0,s6
    8000207c:	00000097          	auipc	ra,0x0
    80002080:	716080e7          	jalr	1814(ra) # 80002792 <swtch>
        kvminithart();
    80002084:	fffff097          	auipc	ra,0xfffff
    80002088:	f42080e7          	jalr	-190(ra) # 80000fc6 <kvminithart>
        c->proc = 0;
    8000208c:	000a3c23          	sd	zero,24(s4)
        found = 1;
    80002090:	4c05                	li	s8,1
    80002092:	b76d                	j	8000203c <scheduler+0x52>
    if(found == 0) {
    80002094:	000c1a63          	bnez	s8,800020a8 <scheduler+0xbe>
  asm volatile("csrr %0, sstatus" : "=r" (x) );
    80002098:	100027f3          	csrr	a5,sstatus
  w_sstatus(r_sstatus() | SSTATUS_SIE);
    8000209c:	0027e793          	ori	a5,a5,2
  asm volatile("csrw sstatus, %0" : : "r" (x));
    800020a0:	10079073          	csrw	sstatus,a5
      asm volatile("wfi");
    800020a4:	10500073          	wfi
  asm volatile("csrr %0, sstatus" : "=r" (x) );
    800020a8:	100027f3          	csrr	a5,sstatus
  w_sstatus(r_sstatus() | SSTATUS_SIE);
    800020ac:	0027e793          	ori	a5,a5,2
  asm volatile("csrw sstatus, %0" : : "r" (x));
    800020b0:	10079073          	csrw	sstatus,a5
    int found = 0;
    800020b4:	4c01                	li	s8,0
    for(p = proc; p < &proc[NPROC]; p++) {
    800020b6:	00010497          	auipc	s1,0x10
    800020ba:	cb248493          	addi	s1,s1,-846 # 80011d68 <proc>
      if(p->state == RUNNABLE) {
    800020be:	4909                	li	s2,2
        p->state = RUNNING;
    800020c0:	4a8d                	li	s5,3
    800020c2:	b771                	j	8000204e <scheduler+0x64>

00000000800020c4 <sched>:
{
    800020c4:	7179                	addi	sp,sp,-48
    800020c6:	f406                	sd	ra,40(sp)
    800020c8:	f022                	sd	s0,32(sp)
    800020ca:	ec26                	sd	s1,24(sp)
    800020cc:	e84a                	sd	s2,16(sp)
    800020ce:	e44e                	sd	s3,8(sp)
    800020d0:	1800                	addi	s0,sp,48
  struct proc *p = myproc();
    800020d2:	00000097          	auipc	ra,0x0
    800020d6:	962080e7          	jalr	-1694(ra) # 80001a34 <myproc>
    800020da:	84aa                	mv	s1,a0
  if(!holding(&p->lock))
    800020dc:	fffff097          	auipc	ra,0xfffff
    800020e0:	aa8080e7          	jalr	-1368(ra) # 80000b84 <holding>
    800020e4:	c93d                	beqz	a0,8000215a <sched+0x96>
  asm volatile("mv %0, tp" : "=r" (x) );
    800020e6:	8792                	mv	a5,tp
  if(mycpu()->noff != 1)
    800020e8:	2781                	sext.w	a5,a5
    800020ea:	079e                	slli	a5,a5,0x7
    800020ec:	00010717          	auipc	a4,0x10
    800020f0:	86470713          	addi	a4,a4,-1948 # 80011950 <pid_lock>
    800020f4:	97ba                	add	a5,a5,a4
    800020f6:	0907a703          	lw	a4,144(a5)
    800020fa:	4785                	li	a5,1
    800020fc:	06f71763          	bne	a4,a5,8000216a <sched+0xa6>
  if(p->state == RUNNING)
    80002100:	4c98                	lw	a4,24(s1)
    80002102:	478d                	li	a5,3
    80002104:	06f70b63          	beq	a4,a5,8000217a <sched+0xb6>
  asm volatile("csrr %0, sstatus" : "=r" (x) );
    80002108:	100027f3          	csrr	a5,sstatus
  return (x & SSTATUS_SIE) != 0;
    8000210c:	8b89                	andi	a5,a5,2
  if(intr_get())
    8000210e:	efb5                	bnez	a5,8000218a <sched+0xc6>
  asm volatile("mv %0, tp" : "=r" (x) );
    80002110:	8792                	mv	a5,tp
  intena = mycpu()->intena;
    80002112:	00010917          	auipc	s2,0x10
    80002116:	83e90913          	addi	s2,s2,-1986 # 80011950 <pid_lock>
    8000211a:	2781                	sext.w	a5,a5
    8000211c:	079e                	slli	a5,a5,0x7
    8000211e:	97ca                	add	a5,a5,s2
    80002120:	0947a983          	lw	s3,148(a5)
    80002124:	8792                	mv	a5,tp
  swtch(&p->context, &mycpu()->context);
    80002126:	2781                	sext.w	a5,a5
    80002128:	079e                	slli	a5,a5,0x7
    8000212a:	00010597          	auipc	a1,0x10
    8000212e:	84658593          	addi	a1,a1,-1978 # 80011970 <cpus+0x8>
    80002132:	95be                	add	a1,a1,a5
    80002134:	06848513          	addi	a0,s1,104
    80002138:	00000097          	auipc	ra,0x0
    8000213c:	65a080e7          	jalr	1626(ra) # 80002792 <swtch>
    80002140:	8792                	mv	a5,tp
  mycpu()->intena = intena;
    80002142:	2781                	sext.w	a5,a5
    80002144:	079e                	slli	a5,a5,0x7
    80002146:	97ca                	add	a5,a5,s2
    80002148:	0937aa23          	sw	s3,148(a5)
}
    8000214c:	70a2                	ld	ra,40(sp)
    8000214e:	7402                	ld	s0,32(sp)
    80002150:	64e2                	ld	s1,24(sp)
    80002152:	6942                	ld	s2,16(sp)
    80002154:	69a2                	ld	s3,8(sp)
    80002156:	6145                	addi	sp,sp,48
    80002158:	8082                	ret
    panic("sched p->lock");
    8000215a:	00006517          	auipc	a0,0x6
    8000215e:	06650513          	addi	a0,a0,102 # 800081c0 <digits+0x190>
    80002162:	ffffe097          	auipc	ra,0xffffe
    80002166:	3e0080e7          	jalr	992(ra) # 80000542 <panic>
    panic("sched locks");
    8000216a:	00006517          	auipc	a0,0x6
    8000216e:	06650513          	addi	a0,a0,102 # 800081d0 <digits+0x1a0>
    80002172:	ffffe097          	auipc	ra,0xffffe
    80002176:	3d0080e7          	jalr	976(ra) # 80000542 <panic>
    panic("sched running");
    8000217a:	00006517          	auipc	a0,0x6
    8000217e:	06650513          	addi	a0,a0,102 # 800081e0 <digits+0x1b0>
    80002182:	ffffe097          	auipc	ra,0xffffe
    80002186:	3c0080e7          	jalr	960(ra) # 80000542 <panic>
    panic("sched interruptible");
    8000218a:	00006517          	auipc	a0,0x6
    8000218e:	06650513          	addi	a0,a0,102 # 800081f0 <digits+0x1c0>
    80002192:	ffffe097          	auipc	ra,0xffffe
    80002196:	3b0080e7          	jalr	944(ra) # 80000542 <panic>

000000008000219a <exit>:
{
    8000219a:	7179                	addi	sp,sp,-48
    8000219c:	f406                	sd	ra,40(sp)
    8000219e:	f022                	sd	s0,32(sp)
    800021a0:	ec26                	sd	s1,24(sp)
    800021a2:	e84a                	sd	s2,16(sp)
    800021a4:	e44e                	sd	s3,8(sp)
    800021a6:	e052                	sd	s4,0(sp)
    800021a8:	1800                	addi	s0,sp,48
    800021aa:	8a2a                	mv	s4,a0
  struct proc *p = myproc();
    800021ac:	00000097          	auipc	ra,0x0
    800021b0:	888080e7          	jalr	-1912(ra) # 80001a34 <myproc>
    800021b4:	89aa                	mv	s3,a0
  if(p == initproc)
    800021b6:	00007797          	auipc	a5,0x7
    800021ba:	e627b783          	ld	a5,-414(a5) # 80009018 <initproc>
    800021be:	0d850493          	addi	s1,a0,216
    800021c2:	15850913          	addi	s2,a0,344
    800021c6:	02a79363          	bne	a5,a0,800021ec <exit+0x52>
    panic("init exiting");
    800021ca:	00006517          	auipc	a0,0x6
    800021ce:	03e50513          	addi	a0,a0,62 # 80008208 <digits+0x1d8>
    800021d2:	ffffe097          	auipc	ra,0xffffe
    800021d6:	370080e7          	jalr	880(ra) # 80000542 <panic>
      fileclose(f);
    800021da:	00002097          	auipc	ra,0x2
    800021de:	506080e7          	jalr	1286(ra) # 800046e0 <fileclose>
      p->ofile[fd] = 0;
    800021e2:	0004b023          	sd	zero,0(s1)
  for(int fd = 0; fd < NOFILE; fd++){
    800021e6:	04a1                	addi	s1,s1,8
    800021e8:	01248563          	beq	s1,s2,800021f2 <exit+0x58>
    if(p->ofile[fd]){
    800021ec:	6088                	ld	a0,0(s1)
    800021ee:	f575                	bnez	a0,800021da <exit+0x40>
    800021f0:	bfdd                	j	800021e6 <exit+0x4c>
  begin_op();
    800021f2:	00002097          	auipc	ra,0x2
    800021f6:	01c080e7          	jalr	28(ra) # 8000420e <begin_op>
  iput(p->cwd);
    800021fa:	1589b503          	ld	a0,344(s3)
    800021fe:	00002097          	auipc	ra,0x2
    80002202:	80e080e7          	jalr	-2034(ra) # 80003a0c <iput>
  end_op();
    80002206:	00002097          	auipc	ra,0x2
    8000220a:	088080e7          	jalr	136(ra) # 8000428e <end_op>
  p->cwd = 0;
    8000220e:	1409bc23          	sd	zero,344(s3)
  acquire(&initproc->lock);
    80002212:	00007497          	auipc	s1,0x7
    80002216:	e0648493          	addi	s1,s1,-506 # 80009018 <initproc>
    8000221a:	6088                	ld	a0,0(s1)
    8000221c:	fffff097          	auipc	ra,0xfffff
    80002220:	9e2080e7          	jalr	-1566(ra) # 80000bfe <acquire>
  wakeup1(initproc);
    80002224:	6088                	ld	a0,0(s1)
    80002226:	fffff097          	auipc	ra,0xfffff
    8000222a:	736080e7          	jalr	1846(ra) # 8000195c <wakeup1>
  release(&initproc->lock);
    8000222e:	6088                	ld	a0,0(s1)
    80002230:	fffff097          	auipc	ra,0xfffff
    80002234:	a82080e7          	jalr	-1406(ra) # 80000cb2 <release>
  acquire(&p->lock);
    80002238:	854e                	mv	a0,s3
    8000223a:	fffff097          	auipc	ra,0xfffff
    8000223e:	9c4080e7          	jalr	-1596(ra) # 80000bfe <acquire>
  struct proc *original_parent = p->parent;
    80002242:	0209b483          	ld	s1,32(s3)
  release(&p->lock);
    80002246:	854e                	mv	a0,s3
    80002248:	fffff097          	auipc	ra,0xfffff
    8000224c:	a6a080e7          	jalr	-1430(ra) # 80000cb2 <release>
  acquire(&original_parent->lock);
    80002250:	8526                	mv	a0,s1
    80002252:	fffff097          	auipc	ra,0xfffff
    80002256:	9ac080e7          	jalr	-1620(ra) # 80000bfe <acquire>
  acquire(&p->lock);
    8000225a:	854e                	mv	a0,s3
    8000225c:	fffff097          	auipc	ra,0xfffff
    80002260:	9a2080e7          	jalr	-1630(ra) # 80000bfe <acquire>
  reparent(p);
    80002264:	854e                	mv	a0,s3
    80002266:	00000097          	auipc	ra,0x0
    8000226a:	d1e080e7          	jalr	-738(ra) # 80001f84 <reparent>
  wakeup1(original_parent);
    8000226e:	8526                	mv	a0,s1
    80002270:	fffff097          	auipc	ra,0xfffff
    80002274:	6ec080e7          	jalr	1772(ra) # 8000195c <wakeup1>
  p->xstate = status;
    80002278:	0349aa23          	sw	s4,52(s3)
  p->state = ZOMBIE;
    8000227c:	4791                	li	a5,4
    8000227e:	00f9ac23          	sw	a5,24(s3)
  release(&original_parent->lock);
    80002282:	8526                	mv	a0,s1
    80002284:	fffff097          	auipc	ra,0xfffff
    80002288:	a2e080e7          	jalr	-1490(ra) # 80000cb2 <release>
  sched();
    8000228c:	00000097          	auipc	ra,0x0
    80002290:	e38080e7          	jalr	-456(ra) # 800020c4 <sched>
  panic("zombie exit");
    80002294:	00006517          	auipc	a0,0x6
    80002298:	f8450513          	addi	a0,a0,-124 # 80008218 <digits+0x1e8>
    8000229c:	ffffe097          	auipc	ra,0xffffe
    800022a0:	2a6080e7          	jalr	678(ra) # 80000542 <panic>

00000000800022a4 <yield>:
{
    800022a4:	1101                	addi	sp,sp,-32
    800022a6:	ec06                	sd	ra,24(sp)
    800022a8:	e822                	sd	s0,16(sp)
    800022aa:	e426                	sd	s1,8(sp)
    800022ac:	1000                	addi	s0,sp,32
  struct proc *p = myproc();
    800022ae:	fffff097          	auipc	ra,0xfffff
    800022b2:	786080e7          	jalr	1926(ra) # 80001a34 <myproc>
    800022b6:	84aa                	mv	s1,a0
  acquire(&p->lock);
    800022b8:	fffff097          	auipc	ra,0xfffff
    800022bc:	946080e7          	jalr	-1722(ra) # 80000bfe <acquire>
  p->state = RUNNABLE;
    800022c0:	4789                	li	a5,2
    800022c2:	cc9c                	sw	a5,24(s1)
  sched();
    800022c4:	00000097          	auipc	ra,0x0
    800022c8:	e00080e7          	jalr	-512(ra) # 800020c4 <sched>
  release(&p->lock);
    800022cc:	8526                	mv	a0,s1
    800022ce:	fffff097          	auipc	ra,0xfffff
    800022d2:	9e4080e7          	jalr	-1564(ra) # 80000cb2 <release>
}
    800022d6:	60e2                	ld	ra,24(sp)
    800022d8:	6442                	ld	s0,16(sp)
    800022da:	64a2                	ld	s1,8(sp)
    800022dc:	6105                	addi	sp,sp,32
    800022de:	8082                	ret

00000000800022e0 <sleep>:
{
    800022e0:	7179                	addi	sp,sp,-48
    800022e2:	f406                	sd	ra,40(sp)
    800022e4:	f022                	sd	s0,32(sp)
    800022e6:	ec26                	sd	s1,24(sp)
    800022e8:	e84a                	sd	s2,16(sp)
    800022ea:	e44e                	sd	s3,8(sp)
    800022ec:	1800                	addi	s0,sp,48
    800022ee:	89aa                	mv	s3,a0
    800022f0:	892e                	mv	s2,a1
  struct proc *p = myproc();
    800022f2:	fffff097          	auipc	ra,0xfffff
    800022f6:	742080e7          	jalr	1858(ra) # 80001a34 <myproc>
    800022fa:	84aa                	mv	s1,a0
  if(lk != &p->lock){  //DOC: sleeplock0
    800022fc:	05250663          	beq	a0,s2,80002348 <sleep+0x68>
    acquire(&p->lock);  //DOC: sleeplock1
    80002300:	fffff097          	auipc	ra,0xfffff
    80002304:	8fe080e7          	jalr	-1794(ra) # 80000bfe <acquire>
    release(lk);
    80002308:	854a                	mv	a0,s2
    8000230a:	fffff097          	auipc	ra,0xfffff
    8000230e:	9a8080e7          	jalr	-1624(ra) # 80000cb2 <release>
  p->chan = chan;
    80002312:	0334b423          	sd	s3,40(s1)
  p->state = SLEEPING;
    80002316:	4785                	li	a5,1
    80002318:	cc9c                	sw	a5,24(s1)
  sched();
    8000231a:	00000097          	auipc	ra,0x0
    8000231e:	daa080e7          	jalr	-598(ra) # 800020c4 <sched>
  p->chan = 0;
    80002322:	0204b423          	sd	zero,40(s1)
    release(&p->lock);
    80002326:	8526                	mv	a0,s1
    80002328:	fffff097          	auipc	ra,0xfffff
    8000232c:	98a080e7          	jalr	-1654(ra) # 80000cb2 <release>
    acquire(lk);
    80002330:	854a                	mv	a0,s2
    80002332:	fffff097          	auipc	ra,0xfffff
    80002336:	8cc080e7          	jalr	-1844(ra) # 80000bfe <acquire>
}
    8000233a:	70a2                	ld	ra,40(sp)
    8000233c:	7402                	ld	s0,32(sp)
    8000233e:	64e2                	ld	s1,24(sp)
    80002340:	6942                	ld	s2,16(sp)
    80002342:	69a2                	ld	s3,8(sp)
    80002344:	6145                	addi	sp,sp,48
    80002346:	8082                	ret
  p->chan = chan;
    80002348:	03353423          	sd	s3,40(a0)
  p->state = SLEEPING;
    8000234c:	4785                	li	a5,1
    8000234e:	cd1c                	sw	a5,24(a0)
  sched();
    80002350:	00000097          	auipc	ra,0x0
    80002354:	d74080e7          	jalr	-652(ra) # 800020c4 <sched>
  p->chan = 0;
    80002358:	0204b423          	sd	zero,40(s1)
  if(lk != &p->lock){
    8000235c:	bff9                	j	8000233a <sleep+0x5a>

000000008000235e <wait>:
{
    8000235e:	715d                	addi	sp,sp,-80
    80002360:	e486                	sd	ra,72(sp)
    80002362:	e0a2                	sd	s0,64(sp)
    80002364:	fc26                	sd	s1,56(sp)
    80002366:	f84a                	sd	s2,48(sp)
    80002368:	f44e                	sd	s3,40(sp)
    8000236a:	f052                	sd	s4,32(sp)
    8000236c:	ec56                	sd	s5,24(sp)
    8000236e:	e85a                	sd	s6,16(sp)
    80002370:	e45e                	sd	s7,8(sp)
    80002372:	0880                	addi	s0,sp,80
    80002374:	8b2a                	mv	s6,a0
  struct proc *p = myproc();
    80002376:	fffff097          	auipc	ra,0xfffff
    8000237a:	6be080e7          	jalr	1726(ra) # 80001a34 <myproc>
    8000237e:	892a                	mv	s2,a0
  acquire(&p->lock);
    80002380:	fffff097          	auipc	ra,0xfffff
    80002384:	87e080e7          	jalr	-1922(ra) # 80000bfe <acquire>
    havekids = 0;
    80002388:	4b81                	li	s7,0
        if(np->state == ZOMBIE){
    8000238a:	4a11                	li	s4,4
        havekids = 1;
    8000238c:	4a85                	li	s5,1
    for(np = proc; np < &proc[NPROC]; np++){
    8000238e:	00015997          	auipc	s3,0x15
    80002392:	5da98993          	addi	s3,s3,1498 # 80017968 <tickslock>
    havekids = 0;
    80002396:	875e                	mv	a4,s7
    for(np = proc; np < &proc[NPROC]; np++){
    80002398:	00010497          	auipc	s1,0x10
    8000239c:	9d048493          	addi	s1,s1,-1584 # 80011d68 <proc>
    800023a0:	a08d                	j	80002402 <wait+0xa4>
          pid = np->pid;
    800023a2:	0384a983          	lw	s3,56(s1)
          if(addr != 0 && copyout(p->pagetable, addr, (char *)&np->xstate,
    800023a6:	000b0e63          	beqz	s6,800023c2 <wait+0x64>
    800023aa:	4691                	li	a3,4
    800023ac:	03448613          	addi	a2,s1,52
    800023b0:	85da                	mv	a1,s6
    800023b2:	05093503          	ld	a0,80(s2)
    800023b6:	fffff097          	auipc	ra,0xfffff
    800023ba:	310080e7          	jalr	784(ra) # 800016c6 <copyout>
    800023be:	02054263          	bltz	a0,800023e2 <wait+0x84>
          freeproc(np);
    800023c2:	8526                	mv	a0,s1
    800023c4:	00000097          	auipc	ra,0x0
    800023c8:	87a080e7          	jalr	-1926(ra) # 80001c3e <freeproc>
          release(&np->lock);
    800023cc:	8526                	mv	a0,s1
    800023ce:	fffff097          	auipc	ra,0xfffff
    800023d2:	8e4080e7          	jalr	-1820(ra) # 80000cb2 <release>
          release(&p->lock);
    800023d6:	854a                	mv	a0,s2
    800023d8:	fffff097          	auipc	ra,0xfffff
    800023dc:	8da080e7          	jalr	-1830(ra) # 80000cb2 <release>
          return pid;
    800023e0:	a8a9                	j	8000243a <wait+0xdc>
            release(&np->lock);
    800023e2:	8526                	mv	a0,s1
    800023e4:	fffff097          	auipc	ra,0xfffff
    800023e8:	8ce080e7          	jalr	-1842(ra) # 80000cb2 <release>
            release(&p->lock);
    800023ec:	854a                	mv	a0,s2
    800023ee:	fffff097          	auipc	ra,0xfffff
    800023f2:	8c4080e7          	jalr	-1852(ra) # 80000cb2 <release>
            return -1;
    800023f6:	59fd                	li	s3,-1
    800023f8:	a089                	j	8000243a <wait+0xdc>
    for(np = proc; np < &proc[NPROC]; np++){
    800023fa:	17048493          	addi	s1,s1,368
    800023fe:	03348463          	beq	s1,s3,80002426 <wait+0xc8>
      if(np->parent == p){
    80002402:	709c                	ld	a5,32(s1)
    80002404:	ff279be3          	bne	a5,s2,800023fa <wait+0x9c>
        acquire(&np->lock);
    80002408:	8526                	mv	a0,s1
    8000240a:	ffffe097          	auipc	ra,0xffffe
    8000240e:	7f4080e7          	jalr	2036(ra) # 80000bfe <acquire>
        if(np->state == ZOMBIE){
    80002412:	4c9c                	lw	a5,24(s1)
    80002414:	f94787e3          	beq	a5,s4,800023a2 <wait+0x44>
        release(&np->lock);
    80002418:	8526                	mv	a0,s1
    8000241a:	fffff097          	auipc	ra,0xfffff
    8000241e:	898080e7          	jalr	-1896(ra) # 80000cb2 <release>
        havekids = 1;
    80002422:	8756                	mv	a4,s5
    80002424:	bfd9                	j	800023fa <wait+0x9c>
    if(!havekids || p->killed){
    80002426:	c701                	beqz	a4,8000242e <wait+0xd0>
    80002428:	03092783          	lw	a5,48(s2)
    8000242c:	c39d                	beqz	a5,80002452 <wait+0xf4>
      release(&p->lock);
    8000242e:	854a                	mv	a0,s2
    80002430:	fffff097          	auipc	ra,0xfffff
    80002434:	882080e7          	jalr	-1918(ra) # 80000cb2 <release>
      return -1;
    80002438:	59fd                	li	s3,-1
}
    8000243a:	854e                	mv	a0,s3
    8000243c:	60a6                	ld	ra,72(sp)
    8000243e:	6406                	ld	s0,64(sp)
    80002440:	74e2                	ld	s1,56(sp)
    80002442:	7942                	ld	s2,48(sp)
    80002444:	79a2                	ld	s3,40(sp)
    80002446:	7a02                	ld	s4,32(sp)
    80002448:	6ae2                	ld	s5,24(sp)
    8000244a:	6b42                	ld	s6,16(sp)
    8000244c:	6ba2                	ld	s7,8(sp)
    8000244e:	6161                	addi	sp,sp,80
    80002450:	8082                	ret
    sleep(p, &p->lock);  //DOC: wait-sleep
    80002452:	85ca                	mv	a1,s2
    80002454:	854a                	mv	a0,s2
    80002456:	00000097          	auipc	ra,0x0
    8000245a:	e8a080e7          	jalr	-374(ra) # 800022e0 <sleep>
    havekids = 0;
    8000245e:	bf25                	j	80002396 <wait+0x38>

0000000080002460 <wakeup>:
{
    80002460:	7139                	addi	sp,sp,-64
    80002462:	fc06                	sd	ra,56(sp)
    80002464:	f822                	sd	s0,48(sp)
    80002466:	f426                	sd	s1,40(sp)
    80002468:	f04a                	sd	s2,32(sp)
    8000246a:	ec4e                	sd	s3,24(sp)
    8000246c:	e852                	sd	s4,16(sp)
    8000246e:	e456                	sd	s5,8(sp)
    80002470:	0080                	addi	s0,sp,64
    80002472:	8a2a                	mv	s4,a0
  for(p = proc; p < &proc[NPROC]; p++) {
    80002474:	00010497          	auipc	s1,0x10
    80002478:	8f448493          	addi	s1,s1,-1804 # 80011d68 <proc>
    if(p->state == SLEEPING && p->chan == chan) {
    8000247c:	4985                	li	s3,1
      p->state = RUNNABLE;
    8000247e:	4a89                	li	s5,2
  for(p = proc; p < &proc[NPROC]; p++) {
    80002480:	00015917          	auipc	s2,0x15
    80002484:	4e890913          	addi	s2,s2,1256 # 80017968 <tickslock>
    80002488:	a811                	j	8000249c <wakeup+0x3c>
    release(&p->lock);
    8000248a:	8526                	mv	a0,s1
    8000248c:	fffff097          	auipc	ra,0xfffff
    80002490:	826080e7          	jalr	-2010(ra) # 80000cb2 <release>
  for(p = proc; p < &proc[NPROC]; p++) {
    80002494:	17048493          	addi	s1,s1,368
    80002498:	03248063          	beq	s1,s2,800024b8 <wakeup+0x58>
    acquire(&p->lock);
    8000249c:	8526                	mv	a0,s1
    8000249e:	ffffe097          	auipc	ra,0xffffe
    800024a2:	760080e7          	jalr	1888(ra) # 80000bfe <acquire>
    if(p->state == SLEEPING && p->chan == chan) {
    800024a6:	4c9c                	lw	a5,24(s1)
    800024a8:	ff3791e3          	bne	a5,s3,8000248a <wakeup+0x2a>
    800024ac:	749c                	ld	a5,40(s1)
    800024ae:	fd479ee3          	bne	a5,s4,8000248a <wakeup+0x2a>
      p->state = RUNNABLE;
    800024b2:	0154ac23          	sw	s5,24(s1)
    800024b6:	bfd1                	j	8000248a <wakeup+0x2a>
}
    800024b8:	70e2                	ld	ra,56(sp)
    800024ba:	7442                	ld	s0,48(sp)
    800024bc:	74a2                	ld	s1,40(sp)
    800024be:	7902                	ld	s2,32(sp)
    800024c0:	69e2                	ld	s3,24(sp)
    800024c2:	6a42                	ld	s4,16(sp)
    800024c4:	6aa2                	ld	s5,8(sp)
    800024c6:	6121                	addi	sp,sp,64
    800024c8:	8082                	ret

00000000800024ca <kill>:
// Kill the process with the given pid.
// The victim won't exit until it tries to return
// to user space (see usertrap() in trap.c).
int
kill(int pid)
{
    800024ca:	7179                	addi	sp,sp,-48
    800024cc:	f406                	sd	ra,40(sp)
    800024ce:	f022                	sd	s0,32(sp)
    800024d0:	ec26                	sd	s1,24(sp)
    800024d2:	e84a                	sd	s2,16(sp)
    800024d4:	e44e                	sd	s3,8(sp)
    800024d6:	1800                	addi	s0,sp,48
    800024d8:	892a                	mv	s2,a0
  struct proc *p;

  for(p = proc; p < &proc[NPROC]; p++){
    800024da:	00010497          	auipc	s1,0x10
    800024de:	88e48493          	addi	s1,s1,-1906 # 80011d68 <proc>
    800024e2:	00015997          	auipc	s3,0x15
    800024e6:	48698993          	addi	s3,s3,1158 # 80017968 <tickslock>
    acquire(&p->lock);
    800024ea:	8526                	mv	a0,s1
    800024ec:	ffffe097          	auipc	ra,0xffffe
    800024f0:	712080e7          	jalr	1810(ra) # 80000bfe <acquire>
    if(p->pid == pid){
    800024f4:	5c9c                	lw	a5,56(s1)
    800024f6:	01278d63          	beq	a5,s2,80002510 <kill+0x46>
        p->state = RUNNABLE;
      }
      release(&p->lock);
      return 0;
    }
    release(&p->lock);
    800024fa:	8526                	mv	a0,s1
    800024fc:	ffffe097          	auipc	ra,0xffffe
    80002500:	7b6080e7          	jalr	1974(ra) # 80000cb2 <release>
  for(p = proc; p < &proc[NPROC]; p++){
    80002504:	17048493          	addi	s1,s1,368
    80002508:	ff3491e3          	bne	s1,s3,800024ea <kill+0x20>
  }
  return -1;
    8000250c:	557d                	li	a0,-1
    8000250e:	a821                	j	80002526 <kill+0x5c>
      p->killed = 1;
    80002510:	4785                	li	a5,1
    80002512:	d89c                	sw	a5,48(s1)
      if(p->state == SLEEPING){
    80002514:	4c98                	lw	a4,24(s1)
    80002516:	00f70f63          	beq	a4,a5,80002534 <kill+0x6a>
      release(&p->lock);
    8000251a:	8526                	mv	a0,s1
    8000251c:	ffffe097          	auipc	ra,0xffffe
    80002520:	796080e7          	jalr	1942(ra) # 80000cb2 <release>
      return 0;
    80002524:	4501                	li	a0,0
}
    80002526:	70a2                	ld	ra,40(sp)
    80002528:	7402                	ld	s0,32(sp)
    8000252a:	64e2                	ld	s1,24(sp)
    8000252c:	6942                	ld	s2,16(sp)
    8000252e:	69a2                	ld	s3,8(sp)
    80002530:	6145                	addi	sp,sp,48
    80002532:	8082                	ret
        p->state = RUNNABLE;
    80002534:	4789                	li	a5,2
    80002536:	cc9c                	sw	a5,24(s1)
    80002538:	b7cd                	j	8000251a <kill+0x50>

000000008000253a <either_copyout>:
// Copy to either a user address, or kernel address,
// depending on usr_dst.
// Returns 0 on success, -1 on error.
int
either_copyout(int user_dst, uint64 dst, void *src, uint64 len)
{
    8000253a:	7179                	addi	sp,sp,-48
    8000253c:	f406                	sd	ra,40(sp)
    8000253e:	f022                	sd	s0,32(sp)
    80002540:	ec26                	sd	s1,24(sp)
    80002542:	e84a                	sd	s2,16(sp)
    80002544:	e44e                	sd	s3,8(sp)
    80002546:	e052                	sd	s4,0(sp)
    80002548:	1800                	addi	s0,sp,48
    8000254a:	84aa                	mv	s1,a0
    8000254c:	892e                	mv	s2,a1
    8000254e:	89b2                	mv	s3,a2
    80002550:	8a36                	mv	s4,a3
  struct proc *p = myproc();
    80002552:	fffff097          	auipc	ra,0xfffff
    80002556:	4e2080e7          	jalr	1250(ra) # 80001a34 <myproc>
  if(user_dst){
    8000255a:	c08d                	beqz	s1,8000257c <either_copyout+0x42>
    return copyout(p->pagetable, dst, src, len);
    8000255c:	86d2                	mv	a3,s4
    8000255e:	864e                	mv	a2,s3
    80002560:	85ca                	mv	a1,s2
    80002562:	6928                	ld	a0,80(a0)
    80002564:	fffff097          	auipc	ra,0xfffff
    80002568:	162080e7          	jalr	354(ra) # 800016c6 <copyout>
  } else {
    memmove((char *)dst, src, len);
    return 0;
  }
}
    8000256c:	70a2                	ld	ra,40(sp)
    8000256e:	7402                	ld	s0,32(sp)
    80002570:	64e2                	ld	s1,24(sp)
    80002572:	6942                	ld	s2,16(sp)
    80002574:	69a2                	ld	s3,8(sp)
    80002576:	6a02                	ld	s4,0(sp)
    80002578:	6145                	addi	sp,sp,48
    8000257a:	8082                	ret
    memmove((char *)dst, src, len);
    8000257c:	000a061b          	sext.w	a2,s4
    80002580:	85ce                	mv	a1,s3
    80002582:	854a                	mv	a0,s2
    80002584:	ffffe097          	auipc	ra,0xffffe
    80002588:	7d2080e7          	jalr	2002(ra) # 80000d56 <memmove>
    return 0;
    8000258c:	8526                	mv	a0,s1
    8000258e:	bff9                	j	8000256c <either_copyout+0x32>

0000000080002590 <either_copyin>:
// Copy from either a user address, or kernel address,
// depending on usr_src.
// Returns 0 on success, -1 on error.
int
either_copyin(void *dst, int user_src, uint64 src, uint64 len)
{
    80002590:	7179                	addi	sp,sp,-48
    80002592:	f406                	sd	ra,40(sp)
    80002594:	f022                	sd	s0,32(sp)
    80002596:	ec26                	sd	s1,24(sp)
    80002598:	e84a                	sd	s2,16(sp)
    8000259a:	e44e                	sd	s3,8(sp)
    8000259c:	e052                	sd	s4,0(sp)
    8000259e:	1800                	addi	s0,sp,48
    800025a0:	892a                	mv	s2,a0
    800025a2:	84ae                	mv	s1,a1
    800025a4:	89b2                	mv	s3,a2
    800025a6:	8a36                	mv	s4,a3
  struct proc *p = myproc();
    800025a8:	fffff097          	auipc	ra,0xfffff
    800025ac:	48c080e7          	jalr	1164(ra) # 80001a34 <myproc>
  if(user_src){
    800025b0:	c08d                	beqz	s1,800025d2 <either_copyin+0x42>
    return copyin(p->pagetable, dst, src, len);
    800025b2:	86d2                	mv	a3,s4
    800025b4:	864e                	mv	a2,s3
    800025b6:	85ca                	mv	a1,s2
    800025b8:	6928                	ld	a0,80(a0)
    800025ba:	fffff097          	auipc	ra,0xfffff
    800025be:	278080e7          	jalr	632(ra) # 80001832 <copyin>
  } else {
    memmove(dst, (char*)src, len);
    return 0;
  }
}
    800025c2:	70a2                	ld	ra,40(sp)
    800025c4:	7402                	ld	s0,32(sp)
    800025c6:	64e2                	ld	s1,24(sp)
    800025c8:	6942                	ld	s2,16(sp)
    800025ca:	69a2                	ld	s3,8(sp)
    800025cc:	6a02                	ld	s4,0(sp)
    800025ce:	6145                	addi	sp,sp,48
    800025d0:	8082                	ret
    memmove(dst, (char*)src, len);
    800025d2:	000a061b          	sext.w	a2,s4
    800025d6:	85ce                	mv	a1,s3
    800025d8:	854a                	mv	a0,s2
    800025da:	ffffe097          	auipc	ra,0xffffe
    800025de:	77c080e7          	jalr	1916(ra) # 80000d56 <memmove>
    return 0;
    800025e2:	8526                	mv	a0,s1
    800025e4:	bff9                	j	800025c2 <either_copyin+0x32>

00000000800025e6 <procdump>:
// Print a process listing to console.  For debugging.
// Runs when user types ^P on console.
// No lock to avoid wedging a stuck machine further.
void
procdump(void)
{
    800025e6:	715d                	addi	sp,sp,-80
    800025e8:	e486                	sd	ra,72(sp)
    800025ea:	e0a2                	sd	s0,64(sp)
    800025ec:	fc26                	sd	s1,56(sp)
    800025ee:	f84a                	sd	s2,48(sp)
    800025f0:	f44e                	sd	s3,40(sp)
    800025f2:	f052                	sd	s4,32(sp)
    800025f4:	ec56                	sd	s5,24(sp)
    800025f6:	e85a                	sd	s6,16(sp)
    800025f8:	e45e                	sd	s7,8(sp)
    800025fa:	0880                	addi	s0,sp,80
  [ZOMBIE]    "zombie"
  };
  struct proc *p;
  char *state;

  printf("\n");
    800025fc:	00006517          	auipc	a0,0x6
    80002600:	abc50513          	addi	a0,a0,-1348 # 800080b8 <digits+0x88>
    80002604:	ffffe097          	auipc	ra,0xffffe
    80002608:	f88080e7          	jalr	-120(ra) # 8000058c <printf>
  for(p = proc; p < &proc[NPROC]; p++){
    8000260c:	00010497          	auipc	s1,0x10
    80002610:	8bc48493          	addi	s1,s1,-1860 # 80011ec8 <proc+0x160>
    80002614:	00015917          	auipc	s2,0x15
    80002618:	4b490913          	addi	s2,s2,1204 # 80017ac8 <bcache+0x148>
    if(p->state == UNUSED)
      continue;
    if(p->state >= 0 && p->state < NELEM(states) && states[p->state])
    8000261c:	4b11                	li	s6,4
      state = states[p->state];
    else
      state = "???";
    8000261e:	00006997          	auipc	s3,0x6
    80002622:	c0a98993          	addi	s3,s3,-1014 # 80008228 <digits+0x1f8>
    printf("%d %s %s", p->pid, state, p->name);
    80002626:	00006a97          	auipc	s5,0x6
    8000262a:	c0aa8a93          	addi	s5,s5,-1014 # 80008230 <digits+0x200>
    printf("\n");
    8000262e:	00006a17          	auipc	s4,0x6
    80002632:	a8aa0a13          	addi	s4,s4,-1398 # 800080b8 <digits+0x88>
    if(p->state >= 0 && p->state < NELEM(states) && states[p->state])
    80002636:	00006b97          	auipc	s7,0x6
    8000263a:	c72b8b93          	addi	s7,s7,-910 # 800082a8 <states.0>
    8000263e:	a00d                	j	80002660 <procdump+0x7a>
    printf("%d %s %s", p->pid, state, p->name);
    80002640:	ed86a583          	lw	a1,-296(a3)
    80002644:	8556                	mv	a0,s5
    80002646:	ffffe097          	auipc	ra,0xffffe
    8000264a:	f46080e7          	jalr	-186(ra) # 8000058c <printf>
    printf("\n");
    8000264e:	8552                	mv	a0,s4
    80002650:	ffffe097          	auipc	ra,0xffffe
    80002654:	f3c080e7          	jalr	-196(ra) # 8000058c <printf>
  for(p = proc; p < &proc[NPROC]; p++){
    80002658:	17048493          	addi	s1,s1,368
    8000265c:	03248163          	beq	s1,s2,8000267e <procdump+0x98>
    if(p->state == UNUSED)
    80002660:	86a6                	mv	a3,s1
    80002662:	eb84a783          	lw	a5,-328(s1)
    80002666:	dbed                	beqz	a5,80002658 <procdump+0x72>
      state = "???";
    80002668:	864e                	mv	a2,s3
    if(p->state >= 0 && p->state < NELEM(states) && states[p->state])
    8000266a:	fcfb6be3          	bltu	s6,a5,80002640 <procdump+0x5a>
    8000266e:	1782                	slli	a5,a5,0x20
    80002670:	9381                	srli	a5,a5,0x20
    80002672:	078e                	slli	a5,a5,0x3
    80002674:	97de                	add	a5,a5,s7
    80002676:	6390                	ld	a2,0(a5)
    80002678:	f661                	bnez	a2,80002640 <procdump+0x5a>
      state = "???";
    8000267a:	864e                	mv	a2,s3
    8000267c:	b7d1                	j	80002640 <procdump+0x5a>
  }
}
    8000267e:	60a6                	ld	ra,72(sp)
    80002680:	6406                	ld	s0,64(sp)
    80002682:	74e2                	ld	s1,56(sp)
    80002684:	7942                	ld	s2,48(sp)
    80002686:	79a2                	ld	s3,40(sp)
    80002688:	7a02                	ld	s4,32(sp)
    8000268a:	6ae2                	ld	s5,24(sp)
    8000268c:	6b42                	ld	s6,16(sp)
    8000268e:	6ba2                	ld	s7,8(sp)
    80002690:	6161                	addi	sp,sp,80
    80002692:	8082                	ret

0000000080002694 <uvmlazytouch>:

// touch a lazy-allocated page so it's mapped to an actual physical page.
void uvmlazytouch(uint64 va) {
    80002694:	7179                	addi	sp,sp,-48
    80002696:	f406                	sd	ra,40(sp)
    80002698:	f022                	sd	s0,32(sp)
    8000269a:	ec26                	sd	s1,24(sp)
    8000269c:	e84a                	sd	s2,16(sp)
    8000269e:	e44e                	sd	s3,8(sp)
    800026a0:	1800                	addi	s0,sp,48
    800026a2:	892a                	mv	s2,a0
  struct proc *p = myproc();
    800026a4:	fffff097          	auipc	ra,0xfffff
    800026a8:	390080e7          	jalr	912(ra) # 80001a34 <myproc>
    800026ac:	89aa                	mv	s3,a0
  char *mem = kalloc();
    800026ae:	ffffe097          	auipc	ra,0xffffe
    800026b2:	460080e7          	jalr	1120(ra) # 80000b0e <kalloc>
  if(mem == 0) {
    800026b6:	cd0d                	beqz	a0,800026f0 <uvmlazytouch+0x5c>
    800026b8:	84aa                	mv	s1,a0
    // failed to allocate physical memory
    printf("lazy alloc: out of memory\n");
    p->killed = 1;
  } else {
    memset(mem, 0, PGSIZE);
    800026ba:	6605                	lui	a2,0x1
    800026bc:	4581                	li	a1,0
    800026be:	ffffe097          	auipc	ra,0xffffe
    800026c2:	63c080e7          	jalr	1596(ra) # 80000cfa <memset>
    if((mappages(p->pagetable, PGROUNDDOWN(va), PGSIZE, (uint64)mem, PTE_W|PTE_X|PTE_R|PTE_U) != 0)
    800026c6:	757d                	lui	a0,0xfffff
    800026c8:	00a97933          	and	s2,s2,a0
    800026cc:	4779                	li	a4,30
    800026ce:	86a6                	mv	a3,s1
    800026d0:	6605                	lui	a2,0x1
    800026d2:	85ca                	mv	a1,s2
    800026d4:	0509b503          	ld	a0,80(s3)
    800026d8:	fffff097          	auipc	ra,0xfffff
    800026dc:	a50080e7          	jalr	-1456(ra) # 80001128 <mappages>
    800026e0:	e505                	bnez	a0,80002708 <uvmlazytouch+0x74>
      kfree(mem);
      p->killed = 1;
    }
  }
  // printf("lazy alloc: %p, p->sz: %p\n", PGROUNDDOWN(va), p->sz);
}
    800026e2:	70a2                	ld	ra,40(sp)
    800026e4:	7402                	ld	s0,32(sp)
    800026e6:	64e2                	ld	s1,24(sp)
    800026e8:	6942                	ld	s2,16(sp)
    800026ea:	69a2                	ld	s3,8(sp)
    800026ec:	6145                	addi	sp,sp,48
    800026ee:	8082                	ret
    printf("lazy alloc: out of memory\n");
    800026f0:	00006517          	auipc	a0,0x6
    800026f4:	b5050513          	addi	a0,a0,-1200 # 80008240 <digits+0x210>
    800026f8:	ffffe097          	auipc	ra,0xffffe
    800026fc:	e94080e7          	jalr	-364(ra) # 8000058c <printf>
    p->killed = 1;
    80002700:	4785                	li	a5,1
    80002702:	02f9a823          	sw	a5,48(s3)
    80002706:	bff1                	j	800026e2 <uvmlazytouch+0x4e>
       && (mappages(p->kernelpgtbl, PGROUNDDOWN(va), PGSIZE, (uint64)mem, PTE_W|PTE_X|PTE_R|PTE_U) != 0)){
    80002708:	4779                	li	a4,30
    8000270a:	86a6                	mv	a3,s1
    8000270c:	6605                	lui	a2,0x1
    8000270e:	85ca                	mv	a1,s2
    80002710:	0589b503          	ld	a0,88(s3)
    80002714:	fffff097          	auipc	ra,0xfffff
    80002718:	a14080e7          	jalr	-1516(ra) # 80001128 <mappages>
    8000271c:	d179                	beqz	a0,800026e2 <uvmlazytouch+0x4e>
      printf("lazy alloc: failed to map page\n");
    8000271e:	00006517          	auipc	a0,0x6
    80002722:	b4250513          	addi	a0,a0,-1214 # 80008260 <digits+0x230>
    80002726:	ffffe097          	auipc	ra,0xffffe
    8000272a:	e66080e7          	jalr	-410(ra) # 8000058c <printf>
      kfree(mem);
    8000272e:	8526                	mv	a0,s1
    80002730:	ffffe097          	auipc	ra,0xffffe
    80002734:	2e2080e7          	jalr	738(ra) # 80000a12 <kfree>
      p->killed = 1;
    80002738:	4785                	li	a5,1
    8000273a:	02f9a823          	sw	a5,48(s3)
}
    8000273e:	b755                	j	800026e2 <uvmlazytouch+0x4e>

0000000080002740 <uvmshouldtouch>:

// whether a page is previously lazy-allocated and needed to be touched before use.
int uvmshouldtouch(uint64 va) {
    80002740:	1101                	addi	sp,sp,-32
    80002742:	ec06                	sd	ra,24(sp)
    80002744:	e822                	sd	s0,16(sp)
    80002746:	e426                	sd	s1,8(sp)
    80002748:	1000                	addi	s0,sp,32
    8000274a:	84aa                	mv	s1,a0
  pte_t *pte;
  struct proc *p = myproc();
    8000274c:	fffff097          	auipc	ra,0xfffff
    80002750:	2e8080e7          	jalr	744(ra) # 80001a34 <myproc>
  
  return va < p->sz // within size of memory for the process
    && PGROUNDDOWN(va) != r_sp() // not accessing stack guard page (it shouldn't be mapped)
    && (((pte = walk(p->pagetable, va, 0))==0) || ((*pte & PTE_V)==0)); // page table entry does not exist
    80002754:	6538                	ld	a4,72(a0)
    80002756:	02e4f863          	bgeu	s1,a4,80002786 <uvmshouldtouch+0x46>
    8000275a:	87aa                	mv	a5,a0
  asm volatile("mv %0, sp" : "=r" (x) );
    8000275c:	868a                	mv	a3,sp
    && PGROUNDDOWN(va) != r_sp() // not accessing stack guard page (it shouldn't be mapped)
    8000275e:	777d                	lui	a4,0xfffff
    80002760:	8f65                	and	a4,a4,s1
    && (((pte = walk(p->pagetable, va, 0))==0) || ((*pte & PTE_V)==0)); // page table entry does not exist
    80002762:	4501                	li	a0,0
    && PGROUNDDOWN(va) != r_sp() // not accessing stack guard page (it shouldn't be mapped)
    80002764:	02d70263          	beq	a4,a3,80002788 <uvmshouldtouch+0x48>
    && (((pte = walk(p->pagetable, va, 0))==0) || ((*pte & PTE_V)==0)); // page table entry does not exist
    80002768:	4601                	li	a2,0
    8000276a:	85a6                	mv	a1,s1
    8000276c:	6ba8                	ld	a0,80(a5)
    8000276e:	fffff097          	auipc	ra,0xfffff
    80002772:	87c080e7          	jalr	-1924(ra) # 80000fea <walk>
    80002776:	87aa                	mv	a5,a0
    80002778:	4505                	li	a0,1
    8000277a:	c799                	beqz	a5,80002788 <uvmshouldtouch+0x48>
    8000277c:	6388                	ld	a0,0(a5)
    8000277e:	00154513          	xori	a0,a0,1
    80002782:	8905                	andi	a0,a0,1
    80002784:	a011                	j	80002788 <uvmshouldtouch+0x48>
    80002786:	4501                	li	a0,0
    80002788:	60e2                	ld	ra,24(sp)
    8000278a:	6442                	ld	s0,16(sp)
    8000278c:	64a2                	ld	s1,8(sp)
    8000278e:	6105                	addi	sp,sp,32
    80002790:	8082                	ret

0000000080002792 <swtch>:
    80002792:	00153023          	sd	ra,0(a0)
    80002796:	00253423          	sd	sp,8(a0)
    8000279a:	e900                	sd	s0,16(a0)
    8000279c:	ed04                	sd	s1,24(a0)
    8000279e:	03253023          	sd	s2,32(a0)
    800027a2:	03353423          	sd	s3,40(a0)
    800027a6:	03453823          	sd	s4,48(a0)
    800027aa:	03553c23          	sd	s5,56(a0)
    800027ae:	05653023          	sd	s6,64(a0)
    800027b2:	05753423          	sd	s7,72(a0)
    800027b6:	05853823          	sd	s8,80(a0)
    800027ba:	05953c23          	sd	s9,88(a0)
    800027be:	07a53023          	sd	s10,96(a0)
    800027c2:	07b53423          	sd	s11,104(a0)
    800027c6:	0005b083          	ld	ra,0(a1)
    800027ca:	0085b103          	ld	sp,8(a1)
    800027ce:	6980                	ld	s0,16(a1)
    800027d0:	6d84                	ld	s1,24(a1)
    800027d2:	0205b903          	ld	s2,32(a1)
    800027d6:	0285b983          	ld	s3,40(a1)
    800027da:	0305ba03          	ld	s4,48(a1)
    800027de:	0385ba83          	ld	s5,56(a1)
    800027e2:	0405bb03          	ld	s6,64(a1)
    800027e6:	0485bb83          	ld	s7,72(a1)
    800027ea:	0505bc03          	ld	s8,80(a1)
    800027ee:	0585bc83          	ld	s9,88(a1)
    800027f2:	0605bd03          	ld	s10,96(a1)
    800027f6:	0685bd83          	ld	s11,104(a1)
    800027fa:	8082                	ret

00000000800027fc <trapinit>:

extern int devintr();

void
trapinit(void)
{
    800027fc:	1141                	addi	sp,sp,-16
    800027fe:	e406                	sd	ra,8(sp)
    80002800:	e022                	sd	s0,0(sp)
    80002802:	0800                	addi	s0,sp,16
  initlock(&tickslock, "time");
    80002804:	00006597          	auipc	a1,0x6
    80002808:	acc58593          	addi	a1,a1,-1332 # 800082d0 <states.0+0x28>
    8000280c:	00015517          	auipc	a0,0x15
    80002810:	15c50513          	addi	a0,a0,348 # 80017968 <tickslock>
    80002814:	ffffe097          	auipc	ra,0xffffe
    80002818:	35a080e7          	jalr	858(ra) # 80000b6e <initlock>
}
    8000281c:	60a2                	ld	ra,8(sp)
    8000281e:	6402                	ld	s0,0(sp)
    80002820:	0141                	addi	sp,sp,16
    80002822:	8082                	ret

0000000080002824 <trapinithart>:

// set up to take exceptions and traps while in the kernel.
void
trapinithart(void)
{
    80002824:	1141                	addi	sp,sp,-16
    80002826:	e422                	sd	s0,8(sp)
    80002828:	0800                	addi	s0,sp,16
  asm volatile("csrw stvec, %0" : : "r" (x));
    8000282a:	00003797          	auipc	a5,0x3
    8000282e:	57678793          	addi	a5,a5,1398 # 80005da0 <kernelvec>
    80002832:	10579073          	csrw	stvec,a5
  w_stvec((uint64)kernelvec);
}
    80002836:	6422                	ld	s0,8(sp)
    80002838:	0141                	addi	sp,sp,16
    8000283a:	8082                	ret

000000008000283c <usertrapret>:
//
// return to user space
//
void
usertrapret(void)
{
    8000283c:	1141                	addi	sp,sp,-16
    8000283e:	e406                	sd	ra,8(sp)
    80002840:	e022                	sd	s0,0(sp)
    80002842:	0800                	addi	s0,sp,16
  struct proc *p = myproc();
    80002844:	fffff097          	auipc	ra,0xfffff
    80002848:	1f0080e7          	jalr	496(ra) # 80001a34 <myproc>
  asm volatile("csrr %0, sstatus" : "=r" (x) );
    8000284c:	100027f3          	csrr	a5,sstatus
  w_sstatus(r_sstatus() & ~SSTATUS_SIE);
    80002850:	9bf5                	andi	a5,a5,-3
  asm volatile("csrw sstatus, %0" : : "r" (x));
    80002852:	10079073          	csrw	sstatus,a5
  // kerneltrap() to usertrap(), so turn off interrupts until
  // we're back in user space, where usertrap() is correct.
  intr_off();

  // send syscalls, interrupts, and exceptions to trampoline.S
  w_stvec(TRAMPOLINE + (uservec - trampoline));
    80002856:	00004617          	auipc	a2,0x4
    8000285a:	7aa60613          	addi	a2,a2,1962 # 80007000 <_trampoline>
    8000285e:	00004697          	auipc	a3,0x4
    80002862:	7a268693          	addi	a3,a3,1954 # 80007000 <_trampoline>
    80002866:	8e91                	sub	a3,a3,a2
    80002868:	040007b7          	lui	a5,0x4000
    8000286c:	17fd                	addi	a5,a5,-1
    8000286e:	07b2                	slli	a5,a5,0xc
    80002870:	96be                	add	a3,a3,a5
  asm volatile("csrw stvec, %0" : : "r" (x));
    80002872:	10569073          	csrw	stvec,a3

  // set up trapframe values that uservec will need when
  // the process next re-enters the kernel.
  p->trapframe->kernel_satp = r_satp();         // kernel page table
    80002876:	7138                	ld	a4,96(a0)
  asm volatile("csrr %0, satp" : "=r" (x) );
    80002878:	180026f3          	csrr	a3,satp
    8000287c:	e314                	sd	a3,0(a4)
  p->trapframe->kernel_sp = p->kstack + PGSIZE; // process's kernel stack
    8000287e:	7138                	ld	a4,96(a0)
    80002880:	6134                	ld	a3,64(a0)
    80002882:	6585                	lui	a1,0x1
    80002884:	96ae                	add	a3,a3,a1
    80002886:	e714                	sd	a3,8(a4)
  p->trapframe->kernel_trap = (uint64)usertrap;
    80002888:	7138                	ld	a4,96(a0)
    8000288a:	00000697          	auipc	a3,0x0
    8000288e:	13868693          	addi	a3,a3,312 # 800029c2 <usertrap>
    80002892:	eb14                	sd	a3,16(a4)
  p->trapframe->kernel_hartid = r_tp();         // hartid for cpuid()
    80002894:	7138                	ld	a4,96(a0)
  asm volatile("mv %0, tp" : "=r" (x) );
    80002896:	8692                	mv	a3,tp
    80002898:	f314                	sd	a3,32(a4)
  asm volatile("csrr %0, sstatus" : "=r" (x) );
    8000289a:	100026f3          	csrr	a3,sstatus
  // set up the registers that trampoline.S's sret will use
  // to get to user space.
  
  // set S Previous Privilege mode to User.
  unsigned long x = r_sstatus();
  x &= ~SSTATUS_SPP; // clear SPP to 0 for user mode
    8000289e:	eff6f693          	andi	a3,a3,-257
  x |= SSTATUS_SPIE; // enable interrupts in user mode
    800028a2:	0206e693          	ori	a3,a3,32
  asm volatile("csrw sstatus, %0" : : "r" (x));
    800028a6:	10069073          	csrw	sstatus,a3
  w_sstatus(x);

  // set S Exception Program Counter to the saved user pc.
  w_sepc(p->trapframe->epc);
    800028aa:	7138                	ld	a4,96(a0)
  asm volatile("csrw sepc, %0" : : "r" (x));
    800028ac:	6f18                	ld	a4,24(a4)
    800028ae:	14171073          	csrw	sepc,a4

  // tell trampoline.S the user page table to switch to.
  uint64 satp = MAKE_SATP(p->pagetable);
    800028b2:	692c                	ld	a1,80(a0)
    800028b4:	81b1                	srli	a1,a1,0xc

  // jump to trampoline.S at the top of memory, which 
  // switches to the user page table, restores user registers,
  // and switches to user mode with sret.
  uint64 fn = TRAMPOLINE + (userret - trampoline);
    800028b6:	00004717          	auipc	a4,0x4
    800028ba:	7da70713          	addi	a4,a4,2010 # 80007090 <userret>
    800028be:	8f11                	sub	a4,a4,a2
    800028c0:	97ba                	add	a5,a5,a4
  ((void (*)(uint64,uint64))fn)(TRAPFRAME, satp);
    800028c2:	577d                	li	a4,-1
    800028c4:	177e                	slli	a4,a4,0x3f
    800028c6:	8dd9                	or	a1,a1,a4
    800028c8:	02000537          	lui	a0,0x2000
    800028cc:	157d                	addi	a0,a0,-1
    800028ce:	0536                	slli	a0,a0,0xd
    800028d0:	9782                	jalr	a5
}
    800028d2:	60a2                	ld	ra,8(sp)
    800028d4:	6402                	ld	s0,0(sp)
    800028d6:	0141                	addi	sp,sp,16
    800028d8:	8082                	ret

00000000800028da <clockintr>:
  w_sstatus(sstatus);
}

void
clockintr()
{
    800028da:	1101                	addi	sp,sp,-32
    800028dc:	ec06                	sd	ra,24(sp)
    800028de:	e822                	sd	s0,16(sp)
    800028e0:	e426                	sd	s1,8(sp)
    800028e2:	1000                	addi	s0,sp,32
  acquire(&tickslock);
    800028e4:	00015497          	auipc	s1,0x15
    800028e8:	08448493          	addi	s1,s1,132 # 80017968 <tickslock>
    800028ec:	8526                	mv	a0,s1
    800028ee:	ffffe097          	auipc	ra,0xffffe
    800028f2:	310080e7          	jalr	784(ra) # 80000bfe <acquire>
  ticks++;
    800028f6:	00006517          	auipc	a0,0x6
    800028fa:	72a50513          	addi	a0,a0,1834 # 80009020 <ticks>
    800028fe:	411c                	lw	a5,0(a0)
    80002900:	2785                	addiw	a5,a5,1
    80002902:	c11c                	sw	a5,0(a0)
  wakeup(&ticks);
    80002904:	00000097          	auipc	ra,0x0
    80002908:	b5c080e7          	jalr	-1188(ra) # 80002460 <wakeup>
  release(&tickslock);
    8000290c:	8526                	mv	a0,s1
    8000290e:	ffffe097          	auipc	ra,0xffffe
    80002912:	3a4080e7          	jalr	932(ra) # 80000cb2 <release>
}
    80002916:	60e2                	ld	ra,24(sp)
    80002918:	6442                	ld	s0,16(sp)
    8000291a:	64a2                	ld	s1,8(sp)
    8000291c:	6105                	addi	sp,sp,32
    8000291e:	8082                	ret

0000000080002920 <devintr>:
// returns 2 if timer interrupt,
// 1 if other device,
// 0 if not recognized.
int
devintr()
{
    80002920:	1101                	addi	sp,sp,-32
    80002922:	ec06                	sd	ra,24(sp)
    80002924:	e822                	sd	s0,16(sp)
    80002926:	e426                	sd	s1,8(sp)
    80002928:	1000                	addi	s0,sp,32
  asm volatile("csrr %0, scause" : "=r" (x) );
    8000292a:	14202773          	csrr	a4,scause
  uint64 scause = r_scause();

  if((scause & 0x8000000000000000L) &&
    8000292e:	00074d63          	bltz	a4,80002948 <devintr+0x28>
    // now allowed to interrupt again.
    if(irq)
      plic_complete(irq);

    return 1;
  } else if(scause == 0x8000000000000001L){
    80002932:	57fd                	li	a5,-1
    80002934:	17fe                	slli	a5,a5,0x3f
    80002936:	0785                	addi	a5,a5,1
    // the SSIP bit in sip.
    w_sip(r_sip() & ~2);

    return 2;
  } else {
    return 0;
    80002938:	4501                	li	a0,0
  } else if(scause == 0x8000000000000001L){
    8000293a:	06f70363          	beq	a4,a5,800029a0 <devintr+0x80>
  }
}
    8000293e:	60e2                	ld	ra,24(sp)
    80002940:	6442                	ld	s0,16(sp)
    80002942:	64a2                	ld	s1,8(sp)
    80002944:	6105                	addi	sp,sp,32
    80002946:	8082                	ret
     (scause & 0xff) == 9){
    80002948:	0ff77793          	andi	a5,a4,255
  if((scause & 0x8000000000000000L) &&
    8000294c:	46a5                	li	a3,9
    8000294e:	fed792e3          	bne	a5,a3,80002932 <devintr+0x12>
    int irq = plic_claim();
    80002952:	00003097          	auipc	ra,0x3
    80002956:	556080e7          	jalr	1366(ra) # 80005ea8 <plic_claim>
    8000295a:	84aa                	mv	s1,a0
    if(irq == UART0_IRQ){
    8000295c:	47a9                	li	a5,10
    8000295e:	02f50763          	beq	a0,a5,8000298c <devintr+0x6c>
    } else if(irq == VIRTIO0_IRQ){
    80002962:	4785                	li	a5,1
    80002964:	02f50963          	beq	a0,a5,80002996 <devintr+0x76>
    return 1;
    80002968:	4505                	li	a0,1
    } else if(irq){
    8000296a:	d8f1                	beqz	s1,8000293e <devintr+0x1e>
      printf("unexpected interrupt irq=%d\n", irq);
    8000296c:	85a6                	mv	a1,s1
    8000296e:	00006517          	auipc	a0,0x6
    80002972:	96a50513          	addi	a0,a0,-1686 # 800082d8 <states.0+0x30>
    80002976:	ffffe097          	auipc	ra,0xffffe
    8000297a:	c16080e7          	jalr	-1002(ra) # 8000058c <printf>
      plic_complete(irq);
    8000297e:	8526                	mv	a0,s1
    80002980:	00003097          	auipc	ra,0x3
    80002984:	54c080e7          	jalr	1356(ra) # 80005ecc <plic_complete>
    return 1;
    80002988:	4505                	li	a0,1
    8000298a:	bf55                	j	8000293e <devintr+0x1e>
      uartintr();
    8000298c:	ffffe097          	auipc	ra,0xffffe
    80002990:	036080e7          	jalr	54(ra) # 800009c2 <uartintr>
    80002994:	b7ed                	j	8000297e <devintr+0x5e>
      virtio_disk_intr();
    80002996:	00004097          	auipc	ra,0x4
    8000299a:	9ba080e7          	jalr	-1606(ra) # 80006350 <virtio_disk_intr>
    8000299e:	b7c5                	j	8000297e <devintr+0x5e>
    if(cpuid() == 0){
    800029a0:	fffff097          	auipc	ra,0xfffff
    800029a4:	068080e7          	jalr	104(ra) # 80001a08 <cpuid>
    800029a8:	c901                	beqz	a0,800029b8 <devintr+0x98>
  asm volatile("csrr %0, sip" : "=r" (x) );
    800029aa:	144027f3          	csrr	a5,sip
    w_sip(r_sip() & ~2);
    800029ae:	9bf5                	andi	a5,a5,-3
  asm volatile("csrw sip, %0" : : "r" (x));
    800029b0:	14479073          	csrw	sip,a5
    return 2;
    800029b4:	4509                	li	a0,2
    800029b6:	b761                	j	8000293e <devintr+0x1e>
      clockintr();
    800029b8:	00000097          	auipc	ra,0x0
    800029bc:	f22080e7          	jalr	-222(ra) # 800028da <clockintr>
    800029c0:	b7ed                	j	800029aa <devintr+0x8a>

00000000800029c2 <usertrap>:
{
    800029c2:	7179                	addi	sp,sp,-48
    800029c4:	f406                	sd	ra,40(sp)
    800029c6:	f022                	sd	s0,32(sp)
    800029c8:	ec26                	sd	s1,24(sp)
    800029ca:	e84a                	sd	s2,16(sp)
    800029cc:	e44e                	sd	s3,8(sp)
    800029ce:	1800                	addi	s0,sp,48
  asm volatile("csrr %0, sstatus" : "=r" (x) );
    800029d0:	100027f3          	csrr	a5,sstatus
  if((r_sstatus() & SSTATUS_SPP) != 0)
    800029d4:	1007f793          	andi	a5,a5,256
    800029d8:	e3b5                	bnez	a5,80002a3c <usertrap+0x7a>
  asm volatile("csrw stvec, %0" : : "r" (x));
    800029da:	00003797          	auipc	a5,0x3
    800029de:	3c678793          	addi	a5,a5,966 # 80005da0 <kernelvec>
    800029e2:	10579073          	csrw	stvec,a5
  struct proc *p = myproc();
    800029e6:	fffff097          	auipc	ra,0xfffff
    800029ea:	04e080e7          	jalr	78(ra) # 80001a34 <myproc>
    800029ee:	84aa                	mv	s1,a0
  p->trapframe->epc = r_sepc();
    800029f0:	713c                	ld	a5,96(a0)
  asm volatile("csrr %0, sepc" : "=r" (x) );
    800029f2:	14102773          	csrr	a4,sepc
    800029f6:	ef98                	sd	a4,24(a5)
  asm volatile("csrr %0, scause" : "=r" (x) );
    800029f8:	14202773          	csrr	a4,scause
  if(r_scause() == 8){
    800029fc:	47a1                	li	a5,8
    800029fe:	04f71d63          	bne	a4,a5,80002a58 <usertrap+0x96>
    if(p->killed)
    80002a02:	591c                	lw	a5,48(a0)
    80002a04:	e7a1                	bnez	a5,80002a4c <usertrap+0x8a>
    p->trapframe->epc += 4;
    80002a06:	70b8                	ld	a4,96(s1)
    80002a08:	6f1c                	ld	a5,24(a4)
    80002a0a:	0791                	addi	a5,a5,4
    80002a0c:	ef1c                	sd	a5,24(a4)
  asm volatile("csrr %0, sstatus" : "=r" (x) );
    80002a0e:	100027f3          	csrr	a5,sstatus
  w_sstatus(r_sstatus() | SSTATUS_SIE);
    80002a12:	0027e793          	ori	a5,a5,2
  asm volatile("csrw sstatus, %0" : : "r" (x));
    80002a16:	10079073          	csrw	sstatus,a5
    syscall();
    80002a1a:	00000097          	auipc	ra,0x0
    80002a1e:	312080e7          	jalr	786(ra) # 80002d2c <syscall>
  if(p->killed)
    80002a22:	589c                	lw	a5,48(s1)
    80002a24:	e3e9                	bnez	a5,80002ae6 <usertrap+0x124>
  usertrapret();
    80002a26:	00000097          	auipc	ra,0x0
    80002a2a:	e16080e7          	jalr	-490(ra) # 8000283c <usertrapret>
}
    80002a2e:	70a2                	ld	ra,40(sp)
    80002a30:	7402                	ld	s0,32(sp)
    80002a32:	64e2                	ld	s1,24(sp)
    80002a34:	6942                	ld	s2,16(sp)
    80002a36:	69a2                	ld	s3,8(sp)
    80002a38:	6145                	addi	sp,sp,48
    80002a3a:	8082                	ret
    panic("usertrap: not from user mode");
    80002a3c:	00006517          	auipc	a0,0x6
    80002a40:	8bc50513          	addi	a0,a0,-1860 # 800082f8 <states.0+0x50>
    80002a44:	ffffe097          	auipc	ra,0xffffe
    80002a48:	afe080e7          	jalr	-1282(ra) # 80000542 <panic>
      exit(-1);
    80002a4c:	557d                	li	a0,-1
    80002a4e:	fffff097          	auipc	ra,0xfffff
    80002a52:	74c080e7          	jalr	1868(ra) # 8000219a <exit>
    80002a56:	bf45                	j	80002a06 <usertrap+0x44>
  } else if((which_dev = devintr()) != 0){
    80002a58:	00000097          	auipc	ra,0x0
    80002a5c:	ec8080e7          	jalr	-312(ra) # 80002920 <devintr>
    80002a60:	892a                	mv	s2,a0
    80002a62:	ed3d                	bnez	a0,80002ae0 <usertrap+0x11e>
  asm volatile("csrr %0, stval" : "=r" (x) );
    80002a64:	143029f3          	csrr	s3,stval
  asm volatile("csrr %0, scause" : "=r" (x) );
    80002a68:	14202773          	csrr	a4,scause
    if((r_scause() == 13 || r_scause() == 15) && uvmshouldtouch(va)){
    80002a6c:	47b5                	li	a5,13
    80002a6e:	04f70d63          	beq	a4,a5,80002ac8 <usertrap+0x106>
    80002a72:	14202773          	csrr	a4,scause
    80002a76:	47bd                	li	a5,15
    80002a78:	04f70863          	beq	a4,a5,80002ac8 <usertrap+0x106>
    80002a7c:	142025f3          	csrr	a1,scause
      printf("usertrap(): unexpected scause %p pid=%d\n", r_scause(), p->pid);
    80002a80:	5c90                	lw	a2,56(s1)
    80002a82:	00006517          	auipc	a0,0x6
    80002a86:	89650513          	addi	a0,a0,-1898 # 80008318 <states.0+0x70>
    80002a8a:	ffffe097          	auipc	ra,0xffffe
    80002a8e:	b02080e7          	jalr	-1278(ra) # 8000058c <printf>
  asm volatile("csrr %0, sepc" : "=r" (x) );
    80002a92:	141025f3          	csrr	a1,sepc
  asm volatile("csrr %0, stval" : "=r" (x) );
    80002a96:	14302673          	csrr	a2,stval
      printf("            sepc=%p stval=%p\n", r_sepc(), r_stval());
    80002a9a:	00006517          	auipc	a0,0x6
    80002a9e:	8ae50513          	addi	a0,a0,-1874 # 80008348 <states.0+0xa0>
    80002aa2:	ffffe097          	auipc	ra,0xffffe
    80002aa6:	aea080e7          	jalr	-1302(ra) # 8000058c <printf>
      p->killed = 1;
    80002aaa:	4785                	li	a5,1
    80002aac:	d89c                	sw	a5,48(s1)
    exit(-1);
    80002aae:	557d                	li	a0,-1
    80002ab0:	fffff097          	auipc	ra,0xfffff
    80002ab4:	6ea080e7          	jalr	1770(ra) # 8000219a <exit>
  if(which_dev == 2)
    80002ab8:	4789                	li	a5,2
    80002aba:	f6f916e3          	bne	s2,a5,80002a26 <usertrap+0x64>
    yield();
    80002abe:	fffff097          	auipc	ra,0xfffff
    80002ac2:	7e6080e7          	jalr	2022(ra) # 800022a4 <yield>
    80002ac6:	b785                	j	80002a26 <usertrap+0x64>
    if((r_scause() == 13 || r_scause() == 15) && uvmshouldtouch(va)){
    80002ac8:	854e                	mv	a0,s3
    80002aca:	00000097          	auipc	ra,0x0
    80002ace:	c76080e7          	jalr	-906(ra) # 80002740 <uvmshouldtouch>
    80002ad2:	d54d                	beqz	a0,80002a7c <usertrap+0xba>
      uvmlazytouch(va);
    80002ad4:	854e                	mv	a0,s3
    80002ad6:	00000097          	auipc	ra,0x0
    80002ada:	bbe080e7          	jalr	-1090(ra) # 80002694 <uvmlazytouch>
    80002ade:	b791                	j	80002a22 <usertrap+0x60>
  if(p->killed)
    80002ae0:	589c                	lw	a5,48(s1)
    80002ae2:	dbf9                	beqz	a5,80002ab8 <usertrap+0xf6>
    80002ae4:	b7e9                	j	80002aae <usertrap+0xec>
    80002ae6:	4901                	li	s2,0
    80002ae8:	b7d9                	j	80002aae <usertrap+0xec>

0000000080002aea <kerneltrap>:
{
    80002aea:	7179                	addi	sp,sp,-48
    80002aec:	f406                	sd	ra,40(sp)
    80002aee:	f022                	sd	s0,32(sp)
    80002af0:	ec26                	sd	s1,24(sp)
    80002af2:	e84a                	sd	s2,16(sp)
    80002af4:	e44e                	sd	s3,8(sp)
    80002af6:	1800                	addi	s0,sp,48
  asm volatile("csrr %0, sepc" : "=r" (x) );
    80002af8:	14102973          	csrr	s2,sepc
  asm volatile("csrr %0, sstatus" : "=r" (x) );
    80002afc:	100024f3          	csrr	s1,sstatus
  asm volatile("csrr %0, scause" : "=r" (x) );
    80002b00:	142029f3          	csrr	s3,scause
  if((sstatus & SSTATUS_SPP) == 0)
    80002b04:	1004f793          	andi	a5,s1,256
    80002b08:	cb85                	beqz	a5,80002b38 <kerneltrap+0x4e>
  asm volatile("csrr %0, sstatus" : "=r" (x) );
    80002b0a:	100027f3          	csrr	a5,sstatus
  return (x & SSTATUS_SIE) != 0;
    80002b0e:	8b89                	andi	a5,a5,2
  if(intr_get() != 0)
    80002b10:	ef85                	bnez	a5,80002b48 <kerneltrap+0x5e>
  if((which_dev = devintr()) == 0){
    80002b12:	00000097          	auipc	ra,0x0
    80002b16:	e0e080e7          	jalr	-498(ra) # 80002920 <devintr>
    80002b1a:	cd1d                	beqz	a0,80002b58 <kerneltrap+0x6e>
  if(which_dev == 2 && myproc() != 0 && myproc()->state == RUNNING)
    80002b1c:	4789                	li	a5,2
    80002b1e:	06f50a63          	beq	a0,a5,80002b92 <kerneltrap+0xa8>
  asm volatile("csrw sepc, %0" : : "r" (x));
    80002b22:	14191073          	csrw	sepc,s2
  asm volatile("csrw sstatus, %0" : : "r" (x));
    80002b26:	10049073          	csrw	sstatus,s1
}
    80002b2a:	70a2                	ld	ra,40(sp)
    80002b2c:	7402                	ld	s0,32(sp)
    80002b2e:	64e2                	ld	s1,24(sp)
    80002b30:	6942                	ld	s2,16(sp)
    80002b32:	69a2                	ld	s3,8(sp)
    80002b34:	6145                	addi	sp,sp,48
    80002b36:	8082                	ret
    panic("kerneltrap: not from supervisor mode");
    80002b38:	00006517          	auipc	a0,0x6
    80002b3c:	83050513          	addi	a0,a0,-2000 # 80008368 <states.0+0xc0>
    80002b40:	ffffe097          	auipc	ra,0xffffe
    80002b44:	a02080e7          	jalr	-1534(ra) # 80000542 <panic>
    panic("kerneltrap: interrupts enabled");
    80002b48:	00006517          	auipc	a0,0x6
    80002b4c:	84850513          	addi	a0,a0,-1976 # 80008390 <states.0+0xe8>
    80002b50:	ffffe097          	auipc	ra,0xffffe
    80002b54:	9f2080e7          	jalr	-1550(ra) # 80000542 <panic>
    printf("scause %p\n", scause);
    80002b58:	85ce                	mv	a1,s3
    80002b5a:	00006517          	auipc	a0,0x6
    80002b5e:	85650513          	addi	a0,a0,-1962 # 800083b0 <states.0+0x108>
    80002b62:	ffffe097          	auipc	ra,0xffffe
    80002b66:	a2a080e7          	jalr	-1494(ra) # 8000058c <printf>
  asm volatile("csrr %0, sepc" : "=r" (x) );
    80002b6a:	141025f3          	csrr	a1,sepc
  asm volatile("csrr %0, stval" : "=r" (x) );
    80002b6e:	14302673          	csrr	a2,stval
    printf("sepc=%p stval=%p\n", r_sepc(), r_stval());
    80002b72:	00006517          	auipc	a0,0x6
    80002b76:	84e50513          	addi	a0,a0,-1970 # 800083c0 <states.0+0x118>
    80002b7a:	ffffe097          	auipc	ra,0xffffe
    80002b7e:	a12080e7          	jalr	-1518(ra) # 8000058c <printf>
    panic("kerneltrap");
    80002b82:	00006517          	auipc	a0,0x6
    80002b86:	85650513          	addi	a0,a0,-1962 # 800083d8 <states.0+0x130>
    80002b8a:	ffffe097          	auipc	ra,0xffffe
    80002b8e:	9b8080e7          	jalr	-1608(ra) # 80000542 <panic>
  if(which_dev == 2 && myproc() != 0 && myproc()->state == RUNNING)
    80002b92:	fffff097          	auipc	ra,0xfffff
    80002b96:	ea2080e7          	jalr	-350(ra) # 80001a34 <myproc>
    80002b9a:	d541                	beqz	a0,80002b22 <kerneltrap+0x38>
